ARM GAS  /var/folders/t9/y_chwk8j4cv2jjx6x9_h4twc0000gn/T//ccqAvOar.s 			page 1


   1              		.cpu cortex-m3
   2              		.arch armv7-m
   3              		.fpu softvfp
   4              		.eabi_attribute 20, 1
   5              		.eabi_attribute 21, 1
   6              		.eabi_attribute 23, 3
   7              		.eabi_attribute 24, 1
   8              		.eabi_attribute 25, 1
   9              		.eabi_attribute 26, 1
  10              		.eabi_attribute 30, 1
  11              		.eabi_attribute 34, 1
  12              		.eabi_attribute 18, 4
  13              		.file	"LCD_UI.c"
  14              		.text
  15              	.Ltext0:
  16              		.cfi_sections	.debug_frame
  17              		.file 1 "Core/Src/LCD_UI.c"
  18              		.section	.text.UI_WriteLineCached,"ax",%progbits
  19              		.align	1
  20              		.syntax unified
  21              		.thumb
  22              		.thumb_func
  24              	UI_WriteLineCached:
  25              	.LVL0:
  26              	.LFB78:
   1:Core/Src/LCD_UI.c **** #include "LCD_UI.h"
   2:Core/Src/LCD_UI.c **** 
   3:Core/Src/LCD_UI.c **** #include "LCD.h"
   4:Core/Src/LCD_UI.c **** 
   5:Core/Src/LCD_UI.c **** #include <stdio.h>
   6:Core/Src/LCD_UI.c **** #include <string.h>
   7:Core/Src/LCD_UI.c **** 
   8:Core/Src/LCD_UI.c **** static UI_Anim_t g_ui_anim = {0U, 0U};
   9:Core/Src/LCD_UI.c **** static char g_line_cache[4][21];
  10:Core/Src/LCD_UI.c **** static uint8_t g_line_valid[4];
  11:Core/Src/LCD_UI.c **** 
  12:Core/Src/LCD_UI.c **** static void UI_FormatFanLine(char out[21], uint8_t fan_index, const FanStatus_t *fan, uint8_t anima
  13:Core/Src/LCD_UI.c **** static void UI_WriteLineCached(uint8_t row, const char *line);
  14:Core/Src/LCD_UI.c **** 
  15:Core/Src/LCD_UI.c **** const char* UI_FanStateToStr(FanState_t state){
  16:Core/Src/LCD_UI.c ****     switch(state){
  17:Core/Src/LCD_UI.c ****         case FAN_STATE_OFF:     return "Off ";
  18:Core/Src/LCD_UI.c ****         case FAN_STATE_STARTING:return "Strt";
  19:Core/Src/LCD_UI.c ****         case FAN_STATE_RUNNING: return "Run ";
  20:Core/Src/LCD_UI.c ****         case FAN_STATE_ERROR:   return "Err.";
  21:Core/Src/LCD_UI.c ****         default:                return "Err.";
  22:Core/Src/LCD_UI.c ****     }
  23:Core/Src/LCD_UI.c **** }
  24:Core/Src/LCD_UI.c **** 
  25:Core/Src/LCD_UI.c **** const char* UI_FanActionToStr(FanAction_t action){
  26:Core/Src/LCD_UI.c ****     switch(action){
  27:Core/Src/LCD_UI.c ****         case FAN_ACTION_ACCEL:    return "+++";
  28:Core/Src/LCD_UI.c ****         case FAN_ACTION_DETECT:   return "@@@";
  29:Core/Src/LCD_UI.c ****         case FAN_ACTION_DECEL:    return "---";
  30:Core/Src/LCD_UI.c ****         case FAN_ACTION_IDLE:     return "===";
  31:Core/Src/LCD_UI.c ****         case FAN_ACTION_RAMP:     return "^^^";
  32:Core/Src/LCD_UI.c ****         case FAN_ACTION_NONE:     return "xxx";
ARM GAS  /var/folders/t9/y_chwk8j4cv2jjx6x9_h4twc0000gn/T//ccqAvOar.s 			page 2


  33:Core/Src/LCD_UI.c ****         default:                  return "xxx";
  34:Core/Src/LCD_UI.c ****     }
  35:Core/Src/LCD_UI.c **** }
  36:Core/Src/LCD_UI.c **** 
  37:Core/Src/LCD_UI.c **** const char* UI_FanAlertToStr(FanAlert_t alert){
  38:Core/Src/LCD_UI.c ****     switch(alert){
  39:Core/Src/LCD_UI.c ****         case FAN_ALERT_WARN:     return "!!!";
  40:Core/Src/LCD_UI.c ****         case FAN_ALERT_FAULT:    return "!!!";
  41:Core/Src/LCD_UI.c ****         case FAN_ALERT_NONE:     return "   ";
  42:Core/Src/LCD_UI.c ****         default:                 return "   ";
  43:Core/Src/LCD_UI.c ****     }
  44:Core/Src/LCD_UI.c **** }
  45:Core/Src/LCD_UI.c **** 
  46:Core/Src/LCD_UI.c **** const char* UI_GetAnimatedAction(FanAction_t action){
  47:Core/Src/LCD_UI.c ****     static const char *accel_frames[3] = {"+  ", "++ ", "+++"};
  48:Core/Src/LCD_UI.c ****     static const char *decel_frames[3] = {"---", " --", "  -"};
  49:Core/Src/LCD_UI.c **** 
  50:Core/Src/LCD_UI.c ****     switch(action){
  51:Core/Src/LCD_UI.c ****         case FAN_ACTION_ACCEL:
  52:Core/Src/LCD_UI.c ****             return accel_frames[g_ui_anim.tick % 3U];
  53:Core/Src/LCD_UI.c ****         case FAN_ACTION_DETECT:
  54:Core/Src/LCD_UI.c ****             return g_ui_anim.blink ? "@@@" : "   ";
  55:Core/Src/LCD_UI.c ****         case FAN_ACTION_DECEL:
  56:Core/Src/LCD_UI.c ****             return decel_frames[g_ui_anim.tick % 3U];
  57:Core/Src/LCD_UI.c ****         case FAN_ACTION_IDLE:
  58:Core/Src/LCD_UI.c ****             return g_ui_anim.blink ? "===" : "= =";
  59:Core/Src/LCD_UI.c ****         case FAN_ACTION_RAMP:
  60:Core/Src/LCD_UI.c ****             return g_ui_anim.blink ? "^^^" : " ^ ";
  61:Core/Src/LCD_UI.c ****         case FAN_ACTION_NONE:
  62:Core/Src/LCD_UI.c ****         default:
  63:Core/Src/LCD_UI.c ****             return "xxx";
  64:Core/Src/LCD_UI.c ****     }
  65:Core/Src/LCD_UI.c **** }
  66:Core/Src/LCD_UI.c **** 
  67:Core/Src/LCD_UI.c **** const char* UI_GetAnimatedAlert(FanAlert_t alert){
  68:Core/Src/LCD_UI.c ****     if(alert == FAN_ALERT_NONE){
  69:Core/Src/LCD_UI.c ****         return "   ";
  70:Core/Src/LCD_UI.c ****     }
  71:Core/Src/LCD_UI.c **** 
  72:Core/Src/LCD_UI.c ****     return g_ui_anim.blink ? "!!!" : "   ";
  73:Core/Src/LCD_UI.c **** }
  74:Core/Src/LCD_UI.c **** 
  75:Core/Src/LCD_UI.c **** void UI_AnimUpdate(void){
  76:Core/Src/LCD_UI.c ****     g_ui_anim.tick++;
  77:Core/Src/LCD_UI.c ****     g_ui_anim.blink ^= 1U;
  78:Core/Src/LCD_UI.c **** }
  79:Core/Src/LCD_UI.c **** 
  80:Core/Src/LCD_UI.c **** void UI_DrawFanLine(uint8_t row, uint8_t fan_index, const FanStatus_t *fan){
  81:Core/Src/LCD_UI.c ****     char line[21];
  82:Core/Src/LCD_UI.c **** 
  83:Core/Src/LCD_UI.c ****     if((fan == NULL) || (row > 3U)) return;
  84:Core/Src/LCD_UI.c **** 
  85:Core/Src/LCD_UI.c ****     UI_FormatFanLine(line, fan_index, fan, 0U);
  86:Core/Src/LCD_UI.c ****     UI_WriteLineCached(row, line);
  87:Core/Src/LCD_UI.c **** }
  88:Core/Src/LCD_UI.c **** 
  89:Core/Src/LCD_UI.c **** void UI_DrawFanLineAnimated(uint8_t row, uint8_t fan_index, const FanStatus_t *fan){
ARM GAS  /var/folders/t9/y_chwk8j4cv2jjx6x9_h4twc0000gn/T//ccqAvOar.s 			page 3


  90:Core/Src/LCD_UI.c ****     char line[21];
  91:Core/Src/LCD_UI.c **** 
  92:Core/Src/LCD_UI.c ****     if((fan == NULL) || (row > 3U)) return;
  93:Core/Src/LCD_UI.c **** 
  94:Core/Src/LCD_UI.c ****     UI_FormatFanLine(line, fan_index, fan, 1U);
  95:Core/Src/LCD_UI.c ****     UI_WriteLineCached(row, line);
  96:Core/Src/LCD_UI.c **** }
  97:Core/Src/LCD_UI.c **** 
  98:Core/Src/LCD_UI.c **** void UI_DrawAllFans(const FanStatus_t fans[4]){
  99:Core/Src/LCD_UI.c ****     uint8_t i;
 100:Core/Src/LCD_UI.c **** 
 101:Core/Src/LCD_UI.c ****     if(fans == NULL) return;
 102:Core/Src/LCD_UI.c **** 
 103:Core/Src/LCD_UI.c ****     for(i = 0U; i < 4U; i++){
 104:Core/Src/LCD_UI.c ****         UI_DrawFanLineAnimated(i, (uint8_t)(i + 1U), &fans[i]);
 105:Core/Src/LCD_UI.c ****     }
 106:Core/Src/LCD_UI.c **** }
 107:Core/Src/LCD_UI.c **** 
 108:Core/Src/LCD_UI.c **** static void UI_FormatFanLine(char out[21], uint8_t fan_index, const FanStatus_t *fan, uint8_t anima
 109:Core/Src/LCD_UI.c ****     const char *state;
 110:Core/Src/LCD_UI.c ****     const char *tail;
 111:Core/Src/LCD_UI.c ****     uint16_t rpm;
 112:Core/Src/LCD_UI.c ****     uint8_t percent;
 113:Core/Src/LCD_UI.c **** 
 114:Core/Src/LCD_UI.c ****     state = UI_FanStateToStr(fan->state);
 115:Core/Src/LCD_UI.c ****     rpm = (fan->rpm > 9999U) ? 9999U : fan->rpm;
 116:Core/Src/LCD_UI.c ****     percent = (fan->percent > 99U) ? 99U : fan->percent;
 117:Core/Src/LCD_UI.c **** 
 118:Core/Src/LCD_UI.c ****     if(fan->alert == FAN_ALERT_NONE){
 119:Core/Src/LCD_UI.c ****         tail = (animated != 0U) ? UI_GetAnimatedAction(fan->action) : UI_FanActionToStr(fan->action
 120:Core/Src/LCD_UI.c ****     } else {
 121:Core/Src/LCD_UI.c ****         tail = (animated != 0U) ? UI_GetAnimatedAlert(fan->alert) : UI_FanAlertToStr(fan->alert);
 122:Core/Src/LCD_UI.c ****     }
 123:Core/Src/LCD_UI.c **** 
 124:Core/Src/LCD_UI.c ****     (void)snprintf(out, 21, "F%1u %-4s%4u(%02u)%3s",
 125:Core/Src/LCD_UI.c ****                    (unsigned int)fan_index,
 126:Core/Src/LCD_UI.c ****                    state,
 127:Core/Src/LCD_UI.c ****                    (unsigned int)rpm,
 128:Core/Src/LCD_UI.c ****                    (unsigned int)percent,
 129:Core/Src/LCD_UI.c ****                    tail);
 130:Core/Src/LCD_UI.c **** }
 131:Core/Src/LCD_UI.c **** 
 132:Core/Src/LCD_UI.c **** static void UI_WriteLineCached(uint8_t row, const char *line){
  27              		.loc 1 132 62 view -0
  28              		.cfi_startproc
  29              		@ args = 0, pretend = 0, frame = 24
  30              		@ frame_needed = 0, uses_anonymous_args = 0
 133:Core/Src/LCD_UI.c ****     char fixed[21];
  31              		.loc 1 133 5 view .LVU1
 134:Core/Src/LCD_UI.c ****     size_t len;
  32              		.loc 1 134 5 view .LVU2
 135:Core/Src/LCD_UI.c **** 
 136:Core/Src/LCD_UI.c ****     if((row > 3U) || (line == NULL)) return;
  33              		.loc 1 136 5 view .LVU3
  34              		.loc 1 136 7 is_stmt 0 view .LVU4
  35 0000 0328     		cmp	r0, #3
  36 0002 4BD8     		bhi	.L10
ARM GAS  /var/folders/t9/y_chwk8j4cv2jjx6x9_h4twc0000gn/T//ccqAvOar.s 			page 4


 132:Core/Src/LCD_UI.c ****     char fixed[21];
  37              		.loc 1 132 62 view .LVU5
  38 0004 70B5     		push	{r4, r5, r6, lr}
  39              	.LCFI0:
  40              		.cfi_def_cfa_offset 16
  41              		.cfi_offset 4, -16
  42              		.cfi_offset 5, -12
  43              		.cfi_offset 6, -8
  44              		.cfi_offset 14, -4
  45 0006 86B0     		sub	sp, sp, #24
  46              	.LCFI1:
  47              		.cfi_def_cfa_offset 40
  48 0008 0446     		mov	r4, r0
  49 000a 0D46     		mov	r5, r1
  50              		.loc 1 136 19 discriminator 2 view .LVU6
  51 000c 0846     		mov	r0, r1
  52              	.LVL1:
  53              		.loc 1 136 19 discriminator 2 view .LVU7
  54 000e 0029     		cmp	r1, #0
  55 0010 42D0     		beq	.L1
 137:Core/Src/LCD_UI.c **** 
 138:Core/Src/LCD_UI.c ****     (void)memset(fixed, ' ', 20U);
  56              		.loc 1 138 5 is_stmt 1 view .LVU8
  57              		.loc 1 138 11 is_stmt 0 view .LVU9
  58 0012 4FF02033 		mov	r3, #538976288
  59 0016 0093     		str	r3, [sp]
  60 0018 0193     		str	r3, [sp, #4]
  61 001a 0293     		str	r3, [sp, #8]
  62 001c 0393     		str	r3, [sp, #12]
  63 001e 0493     		str	r3, [sp, #16]
 139:Core/Src/LCD_UI.c ****     fixed[20] = '\0';
  64              		.loc 1 139 5 is_stmt 1 view .LVU10
  65              		.loc 1 139 15 is_stmt 0 view .LVU11
  66 0020 0023     		movs	r3, #0
  67 0022 8DF81430 		strb	r3, [sp, #20]
 140:Core/Src/LCD_UI.c **** 
 141:Core/Src/LCD_UI.c ****     len = strlen(line);
  68              		.loc 1 141 5 is_stmt 1 view .LVU12
  69              		.loc 1 141 11 is_stmt 0 view .LVU13
  70 0026 FFF7FEFF 		bl	strlen
  71              	.LVL2:
  72              		.loc 1 141 11 view .LVU14
  73 002a 0246     		mov	r2, r0
  74              	.LVL3:
 142:Core/Src/LCD_UI.c ****     if(len > 20U){
  75              		.loc 1 142 5 is_stmt 1 view .LVU15
  76              		.loc 1 142 7 is_stmt 0 view .LVU16
  77 002c 1428     		cmp	r0, #20
  78 002e 00D9     		bls	.L5
 143:Core/Src/LCD_UI.c ****         len = 20U;
  79              		.loc 1 143 13 view .LVU17
  80 0030 1422     		movs	r2, #20
  81              	.L5:
  82              	.LVL4:
 144:Core/Src/LCD_UI.c ****     }
 145:Core/Src/LCD_UI.c **** 
 146:Core/Src/LCD_UI.c ****     (void)memcpy(fixed, line, len);
ARM GAS  /var/folders/t9/y_chwk8j4cv2jjx6x9_h4twc0000gn/T//ccqAvOar.s 			page 5


  83              		.loc 1 146 5 is_stmt 1 view .LVU18
  84              		.loc 1 146 11 is_stmt 0 view .LVU19
  85 0032 2946     		mov	r1, r5
  86 0034 6846     		mov	r0, sp
  87 0036 FFF7FEFF 		bl	memcpy
  88              	.LVL5:
 147:Core/Src/LCD_UI.c **** 
 148:Core/Src/LCD_UI.c ****     if((g_line_valid[row] == 0U) || (strncmp(g_line_cache[row], fixed, 20) != 0)){
  89              		.loc 1 148 5 is_stmt 1 view .LVU20
  90              		.loc 1 148 21 is_stmt 0 view .LVU21
  91 003a 194B     		ldr	r3, .L13
  92 003c 1B5D     		ldrb	r3, [r3, r4]	@ zero_extendqisi2
  93              		.loc 1 148 7 view .LVU22
  94 003e 53B1     		cbz	r3, .L6
  95              		.loc 1 148 58 discriminator 1 view .LVU23
  96 0040 04EB4400 		add	r0, r4, r4, lsl #1
  97 0044 C0EBC000 		rsb	r0, r0, r0, lsl #3
  98              		.loc 1 148 38 discriminator 1 view .LVU24
  99 0048 1422     		movs	r2, #20
 100 004a 6946     		mov	r1, sp
 101 004c 154B     		ldr	r3, .L13+4
 102 004e 1844     		add	r0, r0, r3
 103 0050 FFF7FEFF 		bl	strncmp
 104              	.LVL6:
 105              		.loc 1 148 34 discriminator 2 view .LVU25
 106 0054 00B3     		cbz	r0, .L1
 107              	.L6:
 149:Core/Src/LCD_UI.c ****         LCD_WriteAt(0, row, fixed);
 108              		.loc 1 149 9 is_stmt 1 view .LVU26
 109 0056 6A46     		mov	r2, sp
 110 0058 2146     		mov	r1, r4
 111 005a 0020     		movs	r0, #0
 112 005c FFF7FEFF 		bl	LCD_WriteAt
 113              	.LVL7:
 150:Core/Src/LCD_UI.c ****         (void)memcpy(g_line_cache[row], fixed, sizeof(fixed));
 114              		.loc 1 150 9 view .LVU27
 115              		.loc 1 150 15 is_stmt 0 view .LVU28
 116 0060 04EB4403 		add	r3, r4, r4, lsl #1
 117 0064 C3EBC305 		rsb	r5, r3, r3, lsl #3
 118              	.LVL8:
 119              		.loc 1 150 15 view .LVU29
 120 0068 0E4E     		ldr	r6, .L13+4
 121 006a 06EB050E 		add	lr, r6, r5
 122 006e EC46     		mov	ip, sp
 123 0070 BCE80F00 		ldmia	ip!, {r0, r1, r2, r3}
 124 0074 7051     		str	r0, [r6, r5]	@ unaligned
 125 0076 CEF80410 		str	r1, [lr, #4]	@ unaligned
 126 007a CEF80820 		str	r2, [lr, #8]	@ unaligned
 127 007e CEF80C30 		str	r3, [lr, #12]	@ unaligned
 128 0082 DCF80000 		ldr	r0, [ip]
 129 0086 CEF81000 		str	r0, [lr, #16]	@ unaligned
 130 008a 9CF80430 		ldrb	r3, [ip, #4]	@ zero_extendqisi2
 131 008e 8EF81430 		strb	r3, [lr, #20]
 151:Core/Src/LCD_UI.c ****         g_line_valid[row] = 1U;
 132              		.loc 1 151 9 is_stmt 1 view .LVU30
 133              		.loc 1 151 27 is_stmt 0 view .LVU31
 134 0092 034B     		ldr	r3, .L13
ARM GAS  /var/folders/t9/y_chwk8j4cv2jjx6x9_h4twc0000gn/T//ccqAvOar.s 			page 6


 135 0094 0122     		movs	r2, #1
 136 0096 1A55     		strb	r2, [r3, r4]
 137              	.LVL9:
 138              	.L1:
 152:Core/Src/LCD_UI.c ****     }
 153:Core/Src/LCD_UI.c **** }
 139              		.loc 1 153 1 view .LVU32
 140 0098 06B0     		add	sp, sp, #24
 141              	.LCFI2:
 142              		.cfi_def_cfa_offset 16
 143              		@ sp needed
 144 009a 70BD     		pop	{r4, r5, r6, pc}
 145              	.LVL10:
 146              	.L10:
 147              	.LCFI3:
 148              		.cfi_def_cfa_offset 0
 149              		.cfi_restore 4
 150              		.cfi_restore 5
 151              		.cfi_restore 6
 152              		.cfi_restore 14
 153              		.loc 1 153 1 view .LVU33
 154 009c 7047     		bx	lr
 155              	.L14:
 156 009e 00BF     		.align	2
 157              	.L13:
 158 00a0 00000000 		.word	g_line_valid
 159 00a4 00000000 		.word	g_line_cache
 160              		.cfi_endproc
 161              	.LFE78:
 163              		.section	.rodata.UI_FanStateToStr.str1.4,"aMS",%progbits,1
 164              		.align	2
 165              	.LC0:
 166 0000 4F666620 		.ascii	"Off \000"
 166      00
 167 0005 000000   		.align	2
 168              	.LC1:
 169 0008 53747274 		.ascii	"Strt\000"
 169      00
 170 000d 000000   		.align	2
 171              	.LC2:
 172 0010 52756E20 		.ascii	"Run \000"
 172      00
 173 0015 000000   		.align	2
 174              	.LC3:
 175 0018 4572722E 		.ascii	"Err.\000"
 175      00
 176              		.section	.text.UI_FanStateToStr,"ax",%progbits
 177              		.align	1
 178              		.global	UI_FanStateToStr
 179              		.syntax unified
 180              		.thumb
 181              		.thumb_func
 183              	UI_FanStateToStr:
 184              	.LVL11:
 185              	.LFB68:
  15:Core/Src/LCD_UI.c ****     switch(state){
 186              		.loc 1 15 47 is_stmt 1 view -0
ARM GAS  /var/folders/t9/y_chwk8j4cv2jjx6x9_h4twc0000gn/T//ccqAvOar.s 			page 7


 187              		.cfi_startproc
 188              		@ args = 0, pretend = 0, frame = 0
 189              		@ frame_needed = 0, uses_anonymous_args = 0
 190              		@ link register save eliminated.
  16:Core/Src/LCD_UI.c ****         case FAN_STATE_OFF:     return "Off ";
 191              		.loc 1 16 5 view .LVU35
 192 0000 0228     		cmp	r0, #2
 193 0002 05D0     		beq	.L17
 194 0004 06D8     		bhi	.L18
 195 0006 38B1     		cbz	r0, .L19
 196 0008 0128     		cmp	r0, #1
 197 000a 07D1     		bne	.L20
  18:Core/Src/LCD_UI.c ****         case FAN_STATE_RUNNING: return "Run ";
 198              		.loc 1 18 40 is_stmt 0 view .LVU36
 199 000c 0448     		ldr	r0, .L21
 200              	.LVL12:
  18:Core/Src/LCD_UI.c ****         case FAN_STATE_RUNNING: return "Run ";
 201              		.loc 1 18 40 view .LVU37
 202 000e 7047     		bx	lr
 203              	.LVL13:
 204              	.L17:
  19:Core/Src/LCD_UI.c ****         case FAN_STATE_ERROR:   return "Err.";
 205              		.loc 1 19 40 view .LVU38
 206 0010 0448     		ldr	r0, .L21+4
 207              	.LVL14:
  19:Core/Src/LCD_UI.c ****         case FAN_STATE_ERROR:   return "Err.";
 208              		.loc 1 19 40 view .LVU39
 209 0012 7047     		bx	lr
 210              	.LVL15:
 211              	.L18:
  20:Core/Src/LCD_UI.c ****         default:                return "Err.";
 212              		.loc 1 20 40 view .LVU40
 213 0014 0448     		ldr	r0, .L21+8
 214              	.LVL16:
  20:Core/Src/LCD_UI.c ****         default:                return "Err.";
 215              		.loc 1 20 40 view .LVU41
 216 0016 7047     		bx	lr
 217              	.LVL17:
 218              	.L19:
  16:Core/Src/LCD_UI.c ****         case FAN_STATE_OFF:     return "Off ";
 219              		.loc 1 16 5 view .LVU42
 220 0018 0448     		ldr	r0, .L21+12
 221              	.LVL18:
  16:Core/Src/LCD_UI.c ****         case FAN_STATE_OFF:     return "Off ";
 222              		.loc 1 16 5 view .LVU43
 223 001a 7047     		bx	lr
 224              	.LVL19:
 225              	.L20:
  21:Core/Src/LCD_UI.c ****     }
 226              		.loc 1 21 40 view .LVU44
 227 001c 0248     		ldr	r0, .L21+8
 228              	.LVL20:
  23:Core/Src/LCD_UI.c **** 
 229              		.loc 1 23 1 view .LVU45
 230 001e 7047     		bx	lr
 231              	.L22:
 232              		.align	2
ARM GAS  /var/folders/t9/y_chwk8j4cv2jjx6x9_h4twc0000gn/T//ccqAvOar.s 			page 8


 233              	.L21:
 234 0020 08000000 		.word	.LC1
 235 0024 10000000 		.word	.LC2
 236 0028 18000000 		.word	.LC3
 237 002c 00000000 		.word	.LC0
 238              		.cfi_endproc
 239              	.LFE68:
 241              		.section	.rodata.UI_FanActionToStr.str1.4,"aMS",%progbits,1
 242              		.align	2
 243              	.LC4:
 244 0000 2B2B2B00 		.ascii	"+++\000"
 245              		.align	2
 246              	.LC5:
 247 0004 40404000 		.ascii	"@@@\000"
 248              		.align	2
 249              	.LC6:
 250 0008 2D2D2D00 		.ascii	"---\000"
 251              		.align	2
 252              	.LC7:
 253 000c 3D3D3D00 		.ascii	"===\000"
 254              		.align	2
 255              	.LC8:
 256 0010 5E5E5E00 		.ascii	"^^^\000"
 257              		.align	2
 258              	.LC9:
 259 0014 78787800 		.ascii	"xxx\000"
 260              		.section	.text.UI_FanActionToStr,"ax",%progbits
 261              		.align	1
 262              		.global	UI_FanActionToStr
 263              		.syntax unified
 264              		.thumb
 265              		.thumb_func
 267              	UI_FanActionToStr:
 268              	.LVL21:
 269              	.LFB69:
  25:Core/Src/LCD_UI.c ****     switch(action){
 270              		.loc 1 25 50 is_stmt 1 view -0
 271              		.cfi_startproc
 272              		@ args = 0, pretend = 0, frame = 0
 273              		@ frame_needed = 0, uses_anonymous_args = 0
 274              		@ link register save eliminated.
  26:Core/Src/LCD_UI.c ****         case FAN_ACTION_ACCEL:    return "+++";
 275              		.loc 1 26 5 view .LVU47
 276 0000 0328     		cmp	r0, #3
 277 0002 0ED0     		beq	.L26
 278 0004 07D8     		bhi	.L25
 279 0006 0128     		cmp	r0, #1
 280 0008 0DD0     		beq	.L27
 281 000a 0228     		cmp	r0, #2
 282 000c 01D0     		beq	.L31
  32:Core/Src/LCD_UI.c ****         default:                  return "xxx";
 283              		.loc 1 32 42 is_stmt 0 view .LVU48
 284 000e 0948     		ldr	r0, .L32
 285              	.LVL22:
  32:Core/Src/LCD_UI.c ****         default:                  return "xxx";
 286              		.loc 1 32 42 view .LVU49
 287 0010 7047     		bx	lr
ARM GAS  /var/folders/t9/y_chwk8j4cv2jjx6x9_h4twc0000gn/T//ccqAvOar.s 			page 9


 288              	.LVL23:
 289              	.L31:
  28:Core/Src/LCD_UI.c ****         case FAN_ACTION_DECEL:    return "---";
 290              		.loc 1 28 42 view .LVU50
 291 0012 0948     		ldr	r0, .L32+4
 292              	.LVL24:
  28:Core/Src/LCD_UI.c ****         case FAN_ACTION_DECEL:    return "---";
 293              		.loc 1 28 42 view .LVU51
 294 0014 7047     		bx	lr
 295              	.LVL25:
 296              	.L25:
  26:Core/Src/LCD_UI.c ****         case FAN_ACTION_ACCEL:    return "+++";
 297              		.loc 1 26 5 view .LVU52
 298 0016 0428     		cmp	r0, #4
 299 0018 07D0     		beq	.L29
 300 001a 0528     		cmp	r0, #5
 301 001c 07D1     		bne	.L30
  31:Core/Src/LCD_UI.c ****         case FAN_ACTION_NONE:     return "xxx";
 302              		.loc 1 31 42 view .LVU53
 303 001e 0748     		ldr	r0, .L32+8
 304              	.LVL26:
  31:Core/Src/LCD_UI.c ****         case FAN_ACTION_NONE:     return "xxx";
 305              		.loc 1 31 42 view .LVU54
 306 0020 7047     		bx	lr
 307              	.LVL27:
 308              	.L26:
  29:Core/Src/LCD_UI.c ****         case FAN_ACTION_IDLE:     return "===";
 309              		.loc 1 29 42 view .LVU55
 310 0022 0748     		ldr	r0, .L32+12
 311              	.LVL28:
  29:Core/Src/LCD_UI.c ****         case FAN_ACTION_IDLE:     return "===";
 312              		.loc 1 29 42 view .LVU56
 313 0024 7047     		bx	lr
 314              	.LVL29:
 315              	.L27:
  26:Core/Src/LCD_UI.c ****         case FAN_ACTION_ACCEL:    return "+++";
 316              		.loc 1 26 5 view .LVU57
 317 0026 0748     		ldr	r0, .L32+16
 318              	.LVL30:
  26:Core/Src/LCD_UI.c ****         case FAN_ACTION_ACCEL:    return "+++";
 319              		.loc 1 26 5 view .LVU58
 320 0028 7047     		bx	lr
 321              	.LVL31:
 322              	.L29:
  30:Core/Src/LCD_UI.c ****         case FAN_ACTION_RAMP:     return "^^^";
 323              		.loc 1 30 42 view .LVU59
 324 002a 0748     		ldr	r0, .L32+20
 325              	.LVL32:
  30:Core/Src/LCD_UI.c ****         case FAN_ACTION_RAMP:     return "^^^";
 326              		.loc 1 30 42 view .LVU60
 327 002c 7047     		bx	lr
 328              	.LVL33:
 329              	.L30:
  33:Core/Src/LCD_UI.c ****     }
 330              		.loc 1 33 42 view .LVU61
 331 002e 0148     		ldr	r0, .L32
 332              	.LVL34:
ARM GAS  /var/folders/t9/y_chwk8j4cv2jjx6x9_h4twc0000gn/T//ccqAvOar.s 			page 10


  35:Core/Src/LCD_UI.c **** 
 333              		.loc 1 35 1 view .LVU62
 334 0030 7047     		bx	lr
 335              	.L33:
 336 0032 00BF     		.align	2
 337              	.L32:
 338 0034 14000000 		.word	.LC9
 339 0038 04000000 		.word	.LC5
 340 003c 10000000 		.word	.LC8
 341 0040 08000000 		.word	.LC6
 342 0044 00000000 		.word	.LC4
 343 0048 0C000000 		.word	.LC7
 344              		.cfi_endproc
 345              	.LFE69:
 347              		.section	.rodata.UI_FanAlertToStr.str1.4,"aMS",%progbits,1
 348              		.align	2
 349              	.LC10:
 350 0000 21212100 		.ascii	"!!!\000"
 351              		.align	2
 352              	.LC11:
 353 0004 20202000 		.ascii	"   \000"
 354              		.section	.text.UI_FanAlertToStr,"ax",%progbits
 355              		.align	1
 356              		.global	UI_FanAlertToStr
 357              		.syntax unified
 358              		.thumb
 359              		.thumb_func
 361              	UI_FanAlertToStr:
 362              	.LVL35:
 363              	.LFB70:
  37:Core/Src/LCD_UI.c ****     switch(alert){
 364              		.loc 1 37 47 is_stmt 1 view -0
 365              		.cfi_startproc
 366              		@ args = 0, pretend = 0, frame = 0
 367              		@ frame_needed = 0, uses_anonymous_args = 0
 368              		@ link register save eliminated.
  38:Core/Src/LCD_UI.c ****         case FAN_ALERT_WARN:     return "!!!";
 369              		.loc 1 38 5 view .LVU64
 370 0000 38B1     		cbz	r0, .L36
 371 0002 431E     		subs	r3, r0, #1
 372 0004 DBB2     		uxtb	r3, r3
 373 0006 012B     		cmp	r3, #1
 374 0008 01D8     		bhi	.L38
 375 000a 0348     		ldr	r0, .L39
 376              	.LVL36:
  44:Core/Src/LCD_UI.c **** 
 377              		.loc 1 44 1 is_stmt 0 view .LVU65
 378 000c 7047     		bx	lr
 379              	.LVL37:
 380              	.L38:
  42:Core/Src/LCD_UI.c ****     }
 381              		.loc 1 42 41 view .LVU66
 382 000e 0348     		ldr	r0, .L39+4
 383              	.LVL38:
  42:Core/Src/LCD_UI.c ****     }
 384              		.loc 1 42 41 view .LVU67
 385 0010 7047     		bx	lr
ARM GAS  /var/folders/t9/y_chwk8j4cv2jjx6x9_h4twc0000gn/T//ccqAvOar.s 			page 11


 386              	.LVL39:
 387              	.L36:
  41:Core/Src/LCD_UI.c ****         default:                 return "   ";
 388              		.loc 1 41 41 view .LVU68
 389 0012 0248     		ldr	r0, .L39+4
 390              	.LVL40:
  41:Core/Src/LCD_UI.c ****         default:                 return "   ";
 391              		.loc 1 41 41 view .LVU69
 392 0014 7047     		bx	lr
 393              	.L40:
 394 0016 00BF     		.align	2
 395              	.L39:
 396 0018 00000000 		.word	.LC10
 397 001c 04000000 		.word	.LC11
 398              		.cfi_endproc
 399              	.LFE70:
 401              		.section	.rodata.UI_GetAnimatedAction.str1.4,"aMS",%progbits,1
 402              		.align	2
 403              	.LC12:
 404 0000 3D203D00 		.ascii	"= =\000"
 405              		.align	2
 406              	.LC13:
 407 0004 205E2000 		.ascii	" ^ \000"
 408              		.section	.text.UI_GetAnimatedAction,"ax",%progbits
 409              		.align	1
 410              		.global	UI_GetAnimatedAction
 411              		.syntax unified
 412              		.thumb
 413              		.thumb_func
 415              	UI_GetAnimatedAction:
 416              	.LVL41:
 417              	.LFB71:
  46:Core/Src/LCD_UI.c ****     static const char *accel_frames[3] = {"+  ", "++ ", "+++"};
 418              		.loc 1 46 53 is_stmt 1 view -0
 419              		.cfi_startproc
 420              		@ args = 0, pretend = 0, frame = 0
 421              		@ frame_needed = 0, uses_anonymous_args = 0
 422              		@ link register save eliminated.
  47:Core/Src/LCD_UI.c ****     static const char *decel_frames[3] = {"---", " --", "  -"};
 423              		.loc 1 47 5 view .LVU71
  48:Core/Src/LCD_UI.c **** 
 424              		.loc 1 48 5 view .LVU72
  50:Core/Src/LCD_UI.c ****         case FAN_ACTION_ACCEL:
 425              		.loc 1 50 5 view .LVU73
 426 0000 0328     		cmp	r0, #3
 427 0002 26D0     		beq	.L42
 428 0004 09D9     		bls	.L52
 429 0006 0428     		cmp	r0, #4
 430 0008 32D0     		beq	.L47
 431 000a 0528     		cmp	r0, #5
 432 000c 10D1     		bne	.L53
  60:Core/Src/LCD_UI.c ****         case FAN_ACTION_NONE:
 433              		.loc 1 60 13 view .LVU74
  60:Core/Src/LCD_UI.c ****         case FAN_ACTION_NONE:
 434              		.loc 1 60 29 is_stmt 0 view .LVU75
 435 000e 1E4B     		ldr	r3, .L55
 436 0010 5B78     		ldrb	r3, [r3, #1]	@ zero_extendqisi2
ARM GAS  /var/folders/t9/y_chwk8j4cv2jjx6x9_h4twc0000gn/T//ccqAvOar.s 			page 12


  60:Core/Src/LCD_UI.c ****         case FAN_ACTION_NONE:
 437              		.loc 1 60 44 view .LVU76
 438 0012 002B     		cmp	r3, #0
 439 0014 35D0     		beq	.L51
  60:Core/Src/LCD_UI.c ****         case FAN_ACTION_NONE:
 440              		.loc 1 60 44 discriminator 1 view .LVU77
 441 0016 1D48     		ldr	r0, .L55+4
 442              	.LVL42:
  60:Core/Src/LCD_UI.c ****         case FAN_ACTION_NONE:
 443              		.loc 1 60 44 discriminator 1 view .LVU78
 444 0018 7047     		bx	lr
 445              	.LVL43:
 446              	.L52:
  50:Core/Src/LCD_UI.c ****         case FAN_ACTION_ACCEL:
 447              		.loc 1 50 5 view .LVU79
 448 001a 0128     		cmp	r0, #1
 449 001c 0AD0     		beq	.L44
 450 001e 0228     		cmp	r0, #2
 451 0020 04D1     		bne	.L54
  54:Core/Src/LCD_UI.c ****         case FAN_ACTION_DECEL:
 452              		.loc 1 54 13 is_stmt 1 view .LVU80
  54:Core/Src/LCD_UI.c ****         case FAN_ACTION_DECEL:
 453              		.loc 1 54 29 is_stmt 0 view .LVU81
 454 0022 194B     		ldr	r3, .L55
 455 0024 5B78     		ldrb	r3, [r3, #1]	@ zero_extendqisi2
  54:Core/Src/LCD_UI.c ****         case FAN_ACTION_DECEL:
 456              		.loc 1 54 44 view .LVU82
 457 0026 43B3     		cbz	r3, .L49
  54:Core/Src/LCD_UI.c ****         case FAN_ACTION_DECEL:
 458              		.loc 1 54 44 discriminator 1 view .LVU83
 459 0028 1948     		ldr	r0, .L55+8
 460              	.LVL44:
  54:Core/Src/LCD_UI.c ****         case FAN_ACTION_DECEL:
 461              		.loc 1 54 44 discriminator 1 view .LVU84
 462 002a 7047     		bx	lr
 463              	.LVL45:
 464              	.L54:
  50:Core/Src/LCD_UI.c ****         case FAN_ACTION_ACCEL:
 465              		.loc 1 50 5 view .LVU85
 466 002c 1948     		ldr	r0, .L55+12
 467              	.LVL46:
  50:Core/Src/LCD_UI.c ****         case FAN_ACTION_ACCEL:
 468              		.loc 1 50 5 view .LVU86
 469 002e 7047     		bx	lr
 470              	.LVL47:
 471              	.L53:
  50:Core/Src/LCD_UI.c ****         case FAN_ACTION_ACCEL:
 472              		.loc 1 50 5 view .LVU87
 473 0030 1848     		ldr	r0, .L55+12
 474              	.LVL48:
  50:Core/Src/LCD_UI.c ****         case FAN_ACTION_ACCEL:
 475              		.loc 1 50 5 view .LVU88
 476 0032 7047     		bx	lr
 477              	.LVL49:
 478              	.L44:
  52:Core/Src/LCD_UI.c ****         case FAN_ACTION_DETECT:
 479              		.loc 1 52 13 is_stmt 1 view .LVU89
ARM GAS  /var/folders/t9/y_chwk8j4cv2jjx6x9_h4twc0000gn/T//ccqAvOar.s 			page 13


  52:Core/Src/LCD_UI.c ****         case FAN_ACTION_DETECT:
 480              		.loc 1 52 42 is_stmt 0 view .LVU90
 481 0034 144B     		ldr	r3, .L55
 482 0036 1B78     		ldrb	r3, [r3]	@ zero_extendqisi2
  52:Core/Src/LCD_UI.c ****         case FAN_ACTION_DETECT:
 483              		.loc 1 52 48 view .LVU91
 484 0038 174A     		ldr	r2, .L55+16
 485 003a A2FB0312 		umull	r1, r2, r2, r3
 486 003e 02F0FE01 		and	r1, r2, #254
 487 0042 01EB5202 		add	r2, r1, r2, lsr #1
 488 0046 9B1A     		subs	r3, r3, r2
 489 0048 DBB2     		uxtb	r3, r3
  52:Core/Src/LCD_UI.c ****         case FAN_ACTION_DETECT:
 490              		.loc 1 52 32 view .LVU92
 491 004a 144A     		ldr	r2, .L55+20
 492 004c 52F82300 		ldr	r0, [r2, r3, lsl #2]
 493              	.LVL50:
  52:Core/Src/LCD_UI.c ****         case FAN_ACTION_DETECT:
 494              		.loc 1 52 32 view .LVU93
 495 0050 7047     		bx	lr
 496              	.LVL51:
 497              	.L42:
  56:Core/Src/LCD_UI.c ****         case FAN_ACTION_IDLE:
 498              		.loc 1 56 13 is_stmt 1 view .LVU94
  56:Core/Src/LCD_UI.c ****         case FAN_ACTION_IDLE:
 499              		.loc 1 56 42 is_stmt 0 view .LVU95
 500 0052 0D4B     		ldr	r3, .L55
 501 0054 1B78     		ldrb	r3, [r3]	@ zero_extendqisi2
  56:Core/Src/LCD_UI.c ****         case FAN_ACTION_IDLE:
 502              		.loc 1 56 48 view .LVU96
 503 0056 104A     		ldr	r2, .L55+16
 504 0058 A2FB0312 		umull	r1, r2, r2, r3
 505 005c 02F0FE01 		and	r1, r2, #254
 506 0060 01EB5202 		add	r2, r1, r2, lsr #1
 507 0064 9B1A     		subs	r3, r3, r2
 508 0066 DBB2     		uxtb	r3, r3
  56:Core/Src/LCD_UI.c ****         case FAN_ACTION_IDLE:
 509              		.loc 1 56 32 view .LVU97
 510 0068 0D4A     		ldr	r2, .L55+24
 511 006a 52F82300 		ldr	r0, [r2, r3, lsl #2]
 512              	.LVL52:
  56:Core/Src/LCD_UI.c ****         case FAN_ACTION_IDLE:
 513              		.loc 1 56 32 view .LVU98
 514 006e 7047     		bx	lr
 515              	.LVL53:
 516              	.L47:
  58:Core/Src/LCD_UI.c ****         case FAN_ACTION_RAMP:
 517              		.loc 1 58 13 is_stmt 1 view .LVU99
  58:Core/Src/LCD_UI.c ****         case FAN_ACTION_RAMP:
 518              		.loc 1 58 29 is_stmt 0 view .LVU100
 519 0070 054B     		ldr	r3, .L55
 520 0072 5B78     		ldrb	r3, [r3, #1]	@ zero_extendqisi2
  58:Core/Src/LCD_UI.c ****         case FAN_ACTION_RAMP:
 521              		.loc 1 58 44 view .LVU101
 522 0074 1BB1     		cbz	r3, .L50
  58:Core/Src/LCD_UI.c ****         case FAN_ACTION_RAMP:
 523              		.loc 1 58 44 discriminator 1 view .LVU102
ARM GAS  /var/folders/t9/y_chwk8j4cv2jjx6x9_h4twc0000gn/T//ccqAvOar.s 			page 14


 524 0076 0B48     		ldr	r0, .L55+28
 525              	.LVL54:
  58:Core/Src/LCD_UI.c ****         case FAN_ACTION_RAMP:
 526              		.loc 1 58 44 discriminator 1 view .LVU103
 527 0078 7047     		bx	lr
 528              	.LVL55:
 529              	.L49:
  54:Core/Src/LCD_UI.c ****         case FAN_ACTION_DECEL:
 530              		.loc 1 54 44 discriminator 2 view .LVU104
 531 007a 0B48     		ldr	r0, .L55+32
 532              	.LVL56:
  54:Core/Src/LCD_UI.c ****         case FAN_ACTION_DECEL:
 533              		.loc 1 54 44 discriminator 2 view .LVU105
 534 007c 7047     		bx	lr
 535              	.LVL57:
 536              	.L50:
  58:Core/Src/LCD_UI.c ****         case FAN_ACTION_RAMP:
 537              		.loc 1 58 44 discriminator 2 view .LVU106
 538 007e 0B48     		ldr	r0, .L55+36
 539              	.LVL58:
  58:Core/Src/LCD_UI.c ****         case FAN_ACTION_RAMP:
 540              		.loc 1 58 44 discriminator 2 view .LVU107
 541 0080 7047     		bx	lr
 542              	.LVL59:
 543              	.L51:
  60:Core/Src/LCD_UI.c ****         case FAN_ACTION_NONE:
 544              		.loc 1 60 44 discriminator 2 view .LVU108
 545 0082 0B48     		ldr	r0, .L55+40
 546              	.LVL60:
  65:Core/Src/LCD_UI.c **** 
 547              		.loc 1 65 1 view .LVU109
 548 0084 7047     		bx	lr
 549              	.L56:
 550 0086 00BF     		.align	2
 551              	.L55:
 552 0088 00000000 		.word	g_ui_anim
 553 008c 10000000 		.word	.LC8
 554 0090 04000000 		.word	.LC5
 555 0094 14000000 		.word	.LC9
 556 0098 ABAAAAAA 		.word	-1431655765
 557 009c 00000000 		.word	accel_frames.1
 558 00a0 00000000 		.word	decel_frames.0
 559 00a4 0C000000 		.word	.LC7
 560 00a8 04000000 		.word	.LC11
 561 00ac 00000000 		.word	.LC12
 562 00b0 04000000 		.word	.LC13
 563              		.cfi_endproc
 564              	.LFE71:
 566              		.section	.text.UI_GetAnimatedAlert,"ax",%progbits
 567              		.align	1
 568              		.global	UI_GetAnimatedAlert
 569              		.syntax unified
 570              		.thumb
 571              		.thumb_func
 573              	UI_GetAnimatedAlert:
 574              	.LVL61:
 575              	.LFB72:
ARM GAS  /var/folders/t9/y_chwk8j4cv2jjx6x9_h4twc0000gn/T//ccqAvOar.s 			page 15


  67:Core/Src/LCD_UI.c ****     if(alert == FAN_ALERT_NONE){
 576              		.loc 1 67 50 is_stmt 1 view -0
 577              		.cfi_startproc
 578              		@ args = 0, pretend = 0, frame = 0
 579              		@ frame_needed = 0, uses_anonymous_args = 0
 580              		@ link register save eliminated.
  68:Core/Src/LCD_UI.c ****         return "   ";
 581              		.loc 1 68 5 view .LVU111
  68:Core/Src/LCD_UI.c ****         return "   ";
 582              		.loc 1 68 7 is_stmt 0 view .LVU112
 583 0000 20B1     		cbz	r0, .L59
  72:Core/Src/LCD_UI.c **** }
 584              		.loc 1 72 5 is_stmt 1 view .LVU113
  72:Core/Src/LCD_UI.c **** }
 585              		.loc 1 72 21 is_stmt 0 view .LVU114
 586 0002 044B     		ldr	r3, .L61
 587 0004 5B78     		ldrb	r3, [r3, #1]	@ zero_extendqisi2
  72:Core/Src/LCD_UI.c **** }
 588              		.loc 1 72 36 view .LVU115
 589 0006 1BB1     		cbz	r3, .L60
  72:Core/Src/LCD_UI.c **** }
 590              		.loc 1 72 36 discriminator 1 view .LVU116
 591 0008 0348     		ldr	r0, .L61+4
 592              	.LVL62:
  72:Core/Src/LCD_UI.c **** }
 593              		.loc 1 72 36 discriminator 1 view .LVU117
 594 000a 7047     		bx	lr
 595              	.LVL63:
 596              	.L59:
  69:Core/Src/LCD_UI.c ****     }
 597              		.loc 1 69 16 view .LVU118
 598 000c 0348     		ldr	r0, .L61+8
 599              	.LVL64:
  69:Core/Src/LCD_UI.c ****     }
 600              		.loc 1 69 16 view .LVU119
 601 000e 7047     		bx	lr
 602              	.LVL65:
 603              	.L60:
  72:Core/Src/LCD_UI.c **** }
 604              		.loc 1 72 36 discriminator 2 view .LVU120
 605 0010 0248     		ldr	r0, .L61+8
 606              	.LVL66:
  73:Core/Src/LCD_UI.c **** 
 607              		.loc 1 73 1 view .LVU121
 608 0012 7047     		bx	lr
 609              	.L62:
 610              		.align	2
 611              	.L61:
 612 0014 00000000 		.word	g_ui_anim
 613 0018 00000000 		.word	.LC10
 614 001c 04000000 		.word	.LC11
 615              		.cfi_endproc
 616              	.LFE72:
 618              		.section	.rodata.UI_FormatFanLine.str1.4,"aMS",%progbits,1
 619              		.align	2
 620              	.LC14:
 621 0000 46253175 		.ascii	"F%1u %-4s%4u(%02u)%3s\000"
ARM GAS  /var/folders/t9/y_chwk8j4cv2jjx6x9_h4twc0000gn/T//ccqAvOar.s 			page 16


 621      20252D34 
 621      73253475 
 621      28253032 
 621      75292533 
 622              		.section	.text.UI_FormatFanLine,"ax",%progbits
 623              		.align	1
 624              		.syntax unified
 625              		.thumb
 626              		.thumb_func
 628              	UI_FormatFanLine:
 629              	.LVL67:
 630              	.LFB77:
 108:Core/Src/LCD_UI.c ****     const char *state;
 631              		.loc 1 108 104 is_stmt 1 view -0
 632              		.cfi_startproc
 633              		@ args = 0, pretend = 0, frame = 0
 634              		@ frame_needed = 0, uses_anonymous_args = 0
 108:Core/Src/LCD_UI.c ****     const char *state;
 635              		.loc 1 108 104 is_stmt 0 view .LVU123
 636 0000 2DE9F047 		push	{r4, r5, r6, r7, r8, r9, r10, lr}
 637              	.LCFI4:
 638              		.cfi_def_cfa_offset 32
 639              		.cfi_offset 4, -32
 640              		.cfi_offset 5, -28
 641              		.cfi_offset 6, -24
 642              		.cfi_offset 7, -20
 643              		.cfi_offset 8, -16
 644              		.cfi_offset 9, -12
 645              		.cfi_offset 10, -8
 646              		.cfi_offset 14, -4
 647 0004 84B0     		sub	sp, sp, #16
 648              	.LCFI5:
 649              		.cfi_def_cfa_offset 48
 650 0006 8146     		mov	r9, r0
 651 0008 8A46     		mov	r10, r1
 652 000a 1446     		mov	r4, r2
 653 000c 1F46     		mov	r7, r3
 109:Core/Src/LCD_UI.c ****     const char *tail;
 654              		.loc 1 109 5 is_stmt 1 view .LVU124
 110:Core/Src/LCD_UI.c ****     uint16_t rpm;
 655              		.loc 1 110 5 view .LVU125
 111:Core/Src/LCD_UI.c ****     uint8_t percent;
 656              		.loc 1 111 5 view .LVU126
 112:Core/Src/LCD_UI.c **** 
 657              		.loc 1 112 5 view .LVU127
 114:Core/Src/LCD_UI.c ****     rpm = (fan->rpm > 9999U) ? 9999U : fan->rpm;
 658              		.loc 1 114 5 view .LVU128
 114:Core/Src/LCD_UI.c ****     rpm = (fan->rpm > 9999U) ? 9999U : fan->rpm;
 659              		.loc 1 114 13 is_stmt 0 view .LVU129
 660 000e 1078     		ldrb	r0, [r2]	@ zero_extendqisi2
 661              	.LVL68:
 114:Core/Src/LCD_UI.c ****     rpm = (fan->rpm > 9999U) ? 9999U : fan->rpm;
 662              		.loc 1 114 13 view .LVU130
 663 0010 FFF7FEFF 		bl	UI_FanStateToStr
 664              	.LVL69:
 114:Core/Src/LCD_UI.c ****     rpm = (fan->rpm > 9999U) ? 9999U : fan->rpm;
 665              		.loc 1 114 13 view .LVU131
ARM GAS  /var/folders/t9/y_chwk8j4cv2jjx6x9_h4twc0000gn/T//ccqAvOar.s 			page 17


 666 0014 8046     		mov	r8, r0
 667              	.LVL70:
 115:Core/Src/LCD_UI.c ****     percent = (fan->percent > 99U) ? 99U : fan->percent;
 668              		.loc 1 115 5 is_stmt 1 view .LVU132
 115:Core/Src/LCD_UI.c ****     percent = (fan->percent > 99U) ? 99U : fan->percent;
 669              		.loc 1 115 15 is_stmt 0 view .LVU133
 670 0016 A588     		ldrh	r5, [r4, #4]
 115:Core/Src/LCD_UI.c ****     percent = (fan->percent > 99U) ? 99U : fan->percent;
 671              		.loc 1 115 9 view .LVU134
 672 0018 42F20F73 		movw	r3, #9999
 673 001c 9D42     		cmp	r5, r3
 674 001e 28BF     		it	cs
 675 0020 1D46     		movcs	r5, r3
 676              	.LVL71:
 116:Core/Src/LCD_UI.c **** 
 677              		.loc 1 116 5 is_stmt 1 view .LVU135
 116:Core/Src/LCD_UI.c **** 
 678              		.loc 1 116 19 is_stmt 0 view .LVU136
 679 0022 267A     		ldrb	r6, [r4, #8]	@ zero_extendqisi2
 116:Core/Src/LCD_UI.c **** 
 680              		.loc 1 116 13 view .LVU137
 681 0024 632E     		cmp	r6, #99
 682 0026 28BF     		it	cs
 683 0028 6326     		movcs	r6, #99
 684              	.LVL72:
 118:Core/Src/LCD_UI.c ****         tail = (animated != 0U) ? UI_GetAnimatedAction(fan->action) : UI_FanActionToStr(fan->action
 685              		.loc 1 118 5 is_stmt 1 view .LVU138
 118:Core/Src/LCD_UI.c ****         tail = (animated != 0U) ? UI_GetAnimatedAction(fan->action) : UI_FanActionToStr(fan->action
 686              		.loc 1 118 11 is_stmt 0 view .LVU139
 687 002a A078     		ldrb	r0, [r4, #2]	@ zero_extendqisi2
 688              	.LVL73:
 118:Core/Src/LCD_UI.c ****         tail = (animated != 0U) ? UI_GetAnimatedAction(fan->action) : UI_FanActionToStr(fan->action
 689              		.loc 1 118 7 view .LVU140
 690 002c A8B9     		cbnz	r0, .L64
 119:Core/Src/LCD_UI.c ****     } else {
 691              		.loc 1 119 9 is_stmt 1 view .LVU141
 119:Core/Src/LCD_UI.c ****     } else {
 692              		.loc 1 119 69 is_stmt 0 view .LVU142
 693 002e 87B1     		cbz	r7, .L65
 119:Core/Src/LCD_UI.c ****     } else {
 694              		.loc 1 119 35 discriminator 1 view .LVU143
 695 0030 6078     		ldrb	r0, [r4, #1]	@ zero_extendqisi2
 696 0032 FFF7FEFF 		bl	UI_GetAnimatedAction
 697              	.LVL74:
 698              	.L66:
 124:Core/Src/LCD_UI.c ****                    (unsigned int)fan_index,
 699              		.loc 1 124 5 is_stmt 1 view .LVU144
 124:Core/Src/LCD_UI.c ****                    (unsigned int)fan_index,
 700              		.loc 1 124 11 is_stmt 0 view .LVU145
 701 0036 0390     		str	r0, [sp, #12]
 702 0038 0296     		str	r6, [sp, #8]
 703 003a 0195     		str	r5, [sp, #4]
 704 003c CDF80080 		str	r8, [sp]
 705 0040 5346     		mov	r3, r10
 706 0042 094A     		ldr	r2, .L69
 707 0044 1521     		movs	r1, #21
 708 0046 4846     		mov	r0, r9
ARM GAS  /var/folders/t9/y_chwk8j4cv2jjx6x9_h4twc0000gn/T//ccqAvOar.s 			page 18


 709              	.LVL75:
 124:Core/Src/LCD_UI.c ****                    (unsigned int)fan_index,
 710              		.loc 1 124 11 view .LVU146
 711 0048 FFF7FEFF 		bl	snprintf
 712              	.LVL76:
 130:Core/Src/LCD_UI.c **** 
 713              		.loc 1 130 1 view .LVU147
 714 004c 04B0     		add	sp, sp, #16
 715              	.LCFI6:
 716              		.cfi_remember_state
 717              		.cfi_def_cfa_offset 32
 718              		@ sp needed
 719 004e BDE8F087 		pop	{r4, r5, r6, r7, r8, r9, r10, pc}
 720              	.LVL77:
 721              	.L65:
 722              	.LCFI7:
 723              		.cfi_restore_state
 119:Core/Src/LCD_UI.c ****     } else {
 724              		.loc 1 119 71 discriminator 2 view .LVU148
 725 0052 6078     		ldrb	r0, [r4, #1]	@ zero_extendqisi2
 726 0054 FFF7FEFF 		bl	UI_FanActionToStr
 727              	.LVL78:
 119:Core/Src/LCD_UI.c ****     } else {
 728              		.loc 1 119 71 discriminator 2 view .LVU149
 729 0058 EDE7     		b	.L66
 730              	.LVL79:
 731              	.L64:
 121:Core/Src/LCD_UI.c ****     }
 732              		.loc 1 121 9 is_stmt 1 view .LVU150
 121:Core/Src/LCD_UI.c ****     }
 733              		.loc 1 121 67 is_stmt 0 view .LVU151
 734 005a 17B1     		cbz	r7, .L67
 121:Core/Src/LCD_UI.c ****     }
 735              		.loc 1 121 35 discriminator 1 view .LVU152
 736 005c FFF7FEFF 		bl	UI_GetAnimatedAlert
 737              	.LVL80:
 121:Core/Src/LCD_UI.c ****     }
 738              		.loc 1 121 35 discriminator 1 view .LVU153
 739 0060 E9E7     		b	.L66
 740              	.LVL81:
 741              	.L67:
 121:Core/Src/LCD_UI.c ****     }
 742              		.loc 1 121 69 discriminator 2 view .LVU154
 743 0062 FFF7FEFF 		bl	UI_FanAlertToStr
 744              	.LVL82:
 745 0066 E6E7     		b	.L66
 746              	.L70:
 747              		.align	2
 748              	.L69:
 749 0068 00000000 		.word	.LC14
 750              		.cfi_endproc
 751              	.LFE77:
 753              		.section	.text.UI_AnimUpdate,"ax",%progbits
 754              		.align	1
 755              		.global	UI_AnimUpdate
 756              		.syntax unified
 757              		.thumb
ARM GAS  /var/folders/t9/y_chwk8j4cv2jjx6x9_h4twc0000gn/T//ccqAvOar.s 			page 19


 758              		.thumb_func
 760              	UI_AnimUpdate:
 761              	.LFB73:
  75:Core/Src/LCD_UI.c ****     g_ui_anim.tick++;
 762              		.loc 1 75 25 is_stmt 1 view -0
 763              		.cfi_startproc
 764              		@ args = 0, pretend = 0, frame = 0
 765              		@ frame_needed = 0, uses_anonymous_args = 0
 766              		@ link register save eliminated.
  76:Core/Src/LCD_UI.c ****     g_ui_anim.blink ^= 1U;
 767              		.loc 1 76 5 view .LVU156
  76:Core/Src/LCD_UI.c ****     g_ui_anim.blink ^= 1U;
 768              		.loc 1 76 14 is_stmt 0 view .LVU157
 769 0000 044B     		ldr	r3, .L72
 770 0002 1A78     		ldrb	r2, [r3]	@ zero_extendqisi2
  76:Core/Src/LCD_UI.c ****     g_ui_anim.blink ^= 1U;
 771              		.loc 1 76 19 view .LVU158
 772 0004 0132     		adds	r2, r2, #1
 773 0006 1A70     		strb	r2, [r3]
  77:Core/Src/LCD_UI.c **** }
 774              		.loc 1 77 5 is_stmt 1 view .LVU159
  77:Core/Src/LCD_UI.c **** }
 775              		.loc 1 77 14 is_stmt 0 view .LVU160
 776 0008 5A78     		ldrb	r2, [r3, #1]	@ zero_extendqisi2
  77:Core/Src/LCD_UI.c **** }
 777              		.loc 1 77 21 view .LVU161
 778 000a 82F00102 		eor	r2, r2, #1
 779 000e 5A70     		strb	r2, [r3, #1]
  78:Core/Src/LCD_UI.c **** 
 780              		.loc 1 78 1 view .LVU162
 781 0010 7047     		bx	lr
 782              	.L73:
 783 0012 00BF     		.align	2
 784              	.L72:
 785 0014 00000000 		.word	g_ui_anim
 786              		.cfi_endproc
 787              	.LFE73:
 789              		.section	.text.UI_DrawFanLine,"ax",%progbits
 790              		.align	1
 791              		.global	UI_DrawFanLine
 792              		.syntax unified
 793              		.thumb
 794              		.thumb_func
 796              	UI_DrawFanLine:
 797              	.LVL83:
 798              	.LFB74:
  80:Core/Src/LCD_UI.c ****     char line[21];
 799              		.loc 1 80 76 is_stmt 1 view -0
 800              		.cfi_startproc
 801              		@ args = 0, pretend = 0, frame = 24
 802              		@ frame_needed = 0, uses_anonymous_args = 0
  81:Core/Src/LCD_UI.c **** 
 803              		.loc 1 81 5 view .LVU164
  83:Core/Src/LCD_UI.c **** 
 804              		.loc 1 83 5 view .LVU165
  83:Core/Src/LCD_UI.c **** 
 805              		.loc 1 83 7 is_stmt 0 view .LVU166
ARM GAS  /var/folders/t9/y_chwk8j4cv2jjx6x9_h4twc0000gn/T//ccqAvOar.s 			page 20


 806 0000 7AB1     		cbz	r2, .L79
  80:Core/Src/LCD_UI.c ****     char line[21];
 807              		.loc 1 80 76 view .LVU167
 808 0002 10B5     		push	{r4, lr}
 809              	.LCFI8:
 810              		.cfi_def_cfa_offset 8
 811              		.cfi_offset 4, -8
 812              		.cfi_offset 14, -4
 813 0004 86B0     		sub	sp, sp, #24
 814              	.LCFI9:
 815              		.cfi_def_cfa_offset 32
 816 0006 0446     		mov	r4, r0
  83:Core/Src/LCD_UI.c **** 
 817              		.loc 1 83 22 discriminator 2 view .LVU168
 818 0008 0328     		cmp	r0, #3
 819 000a 01D9     		bls	.L82
 820              	.LVL84:
 821              	.L74:
  87:Core/Src/LCD_UI.c **** 
 822              		.loc 1 87 1 view .LVU169
 823 000c 06B0     		add	sp, sp, #24
 824              	.LCFI10:
 825              		.cfi_remember_state
 826              		.cfi_def_cfa_offset 8
 827              		@ sp needed
 828 000e 10BD     		pop	{r4, pc}
 829              	.LVL85:
 830              	.L82:
 831              	.LCFI11:
 832              		.cfi_restore_state
  85:Core/Src/LCD_UI.c ****     UI_WriteLineCached(row, line);
 833              		.loc 1 85 5 is_stmt 1 view .LVU170
 834 0010 0023     		movs	r3, #0
 835 0012 6846     		mov	r0, sp
 836              	.LVL86:
  85:Core/Src/LCD_UI.c ****     UI_WriteLineCached(row, line);
 837              		.loc 1 85 5 is_stmt 0 view .LVU171
 838 0014 FFF7FEFF 		bl	UI_FormatFanLine
 839              	.LVL87:
  86:Core/Src/LCD_UI.c **** }
 840              		.loc 1 86 5 is_stmt 1 view .LVU172
 841 0018 6946     		mov	r1, sp
 842 001a 2046     		mov	r0, r4
 843 001c FFF7FEFF 		bl	UI_WriteLineCached
 844              	.LVL88:
 845 0020 F4E7     		b	.L74
 846              	.LVL89:
 847              	.L79:
 848              	.LCFI12:
 849              		.cfi_def_cfa_offset 0
 850              		.cfi_restore 4
 851              		.cfi_restore 14
  86:Core/Src/LCD_UI.c **** }
 852              		.loc 1 86 5 is_stmt 0 view .LVU173
 853 0022 7047     		bx	lr
 854              		.cfi_endproc
 855              	.LFE74:
ARM GAS  /var/folders/t9/y_chwk8j4cv2jjx6x9_h4twc0000gn/T//ccqAvOar.s 			page 21


 857              		.section	.text.UI_DrawFanLineAnimated,"ax",%progbits
 858              		.align	1
 859              		.global	UI_DrawFanLineAnimated
 860              		.syntax unified
 861              		.thumb
 862              		.thumb_func
 864              	UI_DrawFanLineAnimated:
 865              	.LVL90:
 866              	.LFB75:
  89:Core/Src/LCD_UI.c ****     char line[21];
 867              		.loc 1 89 84 is_stmt 1 view -0
 868              		.cfi_startproc
 869              		@ args = 0, pretend = 0, frame = 24
 870              		@ frame_needed = 0, uses_anonymous_args = 0
  90:Core/Src/LCD_UI.c **** 
 871              		.loc 1 90 5 view .LVU175
  92:Core/Src/LCD_UI.c **** 
 872              		.loc 1 92 5 view .LVU176
  92:Core/Src/LCD_UI.c **** 
 873              		.loc 1 92 7 is_stmt 0 view .LVU177
 874 0000 7AB1     		cbz	r2, .L88
  89:Core/Src/LCD_UI.c ****     char line[21];
 875              		.loc 1 89 84 view .LVU178
 876 0002 10B5     		push	{r4, lr}
 877              	.LCFI13:
 878              		.cfi_def_cfa_offset 8
 879              		.cfi_offset 4, -8
 880              		.cfi_offset 14, -4
 881 0004 86B0     		sub	sp, sp, #24
 882              	.LCFI14:
 883              		.cfi_def_cfa_offset 32
 884 0006 0446     		mov	r4, r0
  92:Core/Src/LCD_UI.c **** 
 885              		.loc 1 92 22 discriminator 2 view .LVU179
 886 0008 0328     		cmp	r0, #3
 887 000a 01D9     		bls	.L91
 888              	.LVL91:
 889              	.L83:
  96:Core/Src/LCD_UI.c **** 
 890              		.loc 1 96 1 view .LVU180
 891 000c 06B0     		add	sp, sp, #24
 892              	.LCFI15:
 893              		.cfi_remember_state
 894              		.cfi_def_cfa_offset 8
 895              		@ sp needed
 896 000e 10BD     		pop	{r4, pc}
 897              	.LVL92:
 898              	.L91:
 899              	.LCFI16:
 900              		.cfi_restore_state
  94:Core/Src/LCD_UI.c ****     UI_WriteLineCached(row, line);
 901              		.loc 1 94 5 is_stmt 1 view .LVU181
 902 0010 0123     		movs	r3, #1
 903 0012 6846     		mov	r0, sp
 904              	.LVL93:
  94:Core/Src/LCD_UI.c ****     UI_WriteLineCached(row, line);
 905              		.loc 1 94 5 is_stmt 0 view .LVU182
ARM GAS  /var/folders/t9/y_chwk8j4cv2jjx6x9_h4twc0000gn/T//ccqAvOar.s 			page 22


 906 0014 FFF7FEFF 		bl	UI_FormatFanLine
 907              	.LVL94:
  95:Core/Src/LCD_UI.c **** }
 908              		.loc 1 95 5 is_stmt 1 view .LVU183
 909 0018 6946     		mov	r1, sp
 910 001a 2046     		mov	r0, r4
 911 001c FFF7FEFF 		bl	UI_WriteLineCached
 912              	.LVL95:
 913 0020 F4E7     		b	.L83
 914              	.LVL96:
 915              	.L88:
 916              	.LCFI17:
 917              		.cfi_def_cfa_offset 0
 918              		.cfi_restore 4
 919              		.cfi_restore 14
  95:Core/Src/LCD_UI.c **** }
 920              		.loc 1 95 5 is_stmt 0 view .LVU184
 921 0022 7047     		bx	lr
 922              		.cfi_endproc
 923              	.LFE75:
 925              		.section	.text.UI_DrawAllFans,"ax",%progbits
 926              		.align	1
 927              		.global	UI_DrawAllFans
 928              		.syntax unified
 929              		.thumb
 930              		.thumb_func
 932              	UI_DrawAllFans:
 933              	.LVL97:
 934              	.LFB76:
  98:Core/Src/LCD_UI.c ****     uint8_t i;
 935              		.loc 1 98 47 is_stmt 1 view -0
 936              		.cfi_startproc
 937              		@ args = 0, pretend = 0, frame = 0
 938              		@ frame_needed = 0, uses_anonymous_args = 0
  99:Core/Src/LCD_UI.c **** 
 939              		.loc 1 99 5 view .LVU186
 101:Core/Src/LCD_UI.c **** 
 940              		.loc 1 101 5 view .LVU187
 101:Core/Src/LCD_UI.c **** 
 941              		.loc 1 101 7 is_stmt 0 view .LVU188
 942 0000 80B1     		cbz	r0, .L97
  98:Core/Src/LCD_UI.c ****     uint8_t i;
 943              		.loc 1 98 47 view .LVU189
 944 0002 38B5     		push	{r3, r4, r5, lr}
 945              	.LCFI18:
 946              		.cfi_def_cfa_offset 16
 947              		.cfi_offset 3, -16
 948              		.cfi_offset 4, -12
 949              		.cfi_offset 5, -8
 950              		.cfi_offset 14, -4
 951 0004 0546     		mov	r5, r0
 103:Core/Src/LCD_UI.c ****         UI_DrawFanLineAnimated(i, (uint8_t)(i + 1U), &fans[i]);
 952              		.loc 1 103 11 view .LVU190
 953 0006 0020     		movs	r0, #0
 954              	.LVL98:
 103:Core/Src/LCD_UI.c ****         UI_DrawFanLineAnimated(i, (uint8_t)(i + 1U), &fans[i]);
 955              		.loc 1 103 11 view .LVU191
ARM GAS  /var/folders/t9/y_chwk8j4cv2jjx6x9_h4twc0000gn/T//ccqAvOar.s 			page 23


 956 0008 09E0     		b	.L94
 957              	.LVL99:
 958              	.L95:
 104:Core/Src/LCD_UI.c ****     }
 959              		.loc 1 104 9 is_stmt 1 view .LVU192
 104:Core/Src/LCD_UI.c ****     }
 960              		.loc 1 104 35 is_stmt 0 view .LVU193
 961 000a 441C     		adds	r4, r0, #1
 962 000c E4B2     		uxtb	r4, r4
 104:Core/Src/LCD_UI.c ****     }
 963              		.loc 1 104 59 view .LVU194
 964 000e 00EB8002 		add	r2, r0, r0, lsl #2
 104:Core/Src/LCD_UI.c ****     }
 965              		.loc 1 104 9 view .LVU195
 966 0012 05EB4202 		add	r2, r5, r2, lsl #1
 967 0016 2146     		mov	r1, r4
 968 0018 FFF7FEFF 		bl	UI_DrawFanLineAnimated
 969              	.LVL100:
 103:Core/Src/LCD_UI.c ****         UI_DrawFanLineAnimated(i, (uint8_t)(i + 1U), &fans[i]);
 970              		.loc 1 103 26 is_stmt 1 discriminator 3 view .LVU196
 103:Core/Src/LCD_UI.c ****         UI_DrawFanLineAnimated(i, (uint8_t)(i + 1U), &fans[i]);
 971              		.loc 1 103 26 is_stmt 0 discriminator 3 view .LVU197
 972 001c 2046     		mov	r0, r4
 973              	.LVL101:
 974              	.L94:
 103:Core/Src/LCD_UI.c ****         UI_DrawFanLineAnimated(i, (uint8_t)(i + 1U), &fans[i]);
 975              		.loc 1 103 19 is_stmt 1 discriminator 1 view .LVU198
 976 001e 0328     		cmp	r0, #3
 977 0020 F3D9     		bls	.L95
 106:Core/Src/LCD_UI.c **** 
 978              		.loc 1 106 1 is_stmt 0 view .LVU199
 979 0022 38BD     		pop	{r3, r4, r5, pc}
 980              	.LVL102:
 981              	.L97:
 982              	.LCFI19:
 983              		.cfi_def_cfa_offset 0
 984              		.cfi_restore 3
 985              		.cfi_restore 4
 986              		.cfi_restore 5
 987              		.cfi_restore 14
 106:Core/Src/LCD_UI.c **** 
 988              		.loc 1 106 1 view .LVU200
 989 0024 7047     		bx	lr
 990              		.cfi_endproc
 991              	.LFE76:
 993              		.section	.rodata.str1.4,"aMS",%progbits,1
 994              		.align	2
 995              	.LC15:
 996 0000 202D2D00 		.ascii	" --\000"
 997              		.align	2
 998              	.LC16:
 999 0004 20202D00 		.ascii	"  -\000"
 1000              		.section	.rodata.decel_frames.0,"a"
 1001              		.align	2
 1004              	decel_frames.0:
 1005 0000 08000000 		.word	.LC6
 1006 0004 00000000 		.word	.LC15
ARM GAS  /var/folders/t9/y_chwk8j4cv2jjx6x9_h4twc0000gn/T//ccqAvOar.s 			page 24


 1007 0008 04000000 		.word	.LC16
 1008              		.section	.rodata.str1.4
 1009              		.align	2
 1010              	.LC17:
 1011 0008 2B202000 		.ascii	"+  \000"
 1012              		.align	2
 1013              	.LC18:
 1014 000c 2B2B2000 		.ascii	"++ \000"
 1015              		.section	.rodata.accel_frames.1,"a"
 1016              		.align	2
 1019              	accel_frames.1:
 1020 0000 08000000 		.word	.LC17
 1021 0004 0C000000 		.word	.LC18
 1022 0008 00000000 		.word	.LC4
 1023              		.section	.bss.g_line_valid,"aw",%nobits
 1024              		.align	2
 1027              	g_line_valid:
 1028 0000 00000000 		.space	4
 1029              		.section	.bss.g_line_cache,"aw",%nobits
 1030              		.align	2
 1033              	g_line_cache:
 1034 0000 00000000 		.space	84
 1034      00000000 
 1034      00000000 
 1034      00000000 
 1034      00000000 
 1035              		.section	.bss.g_ui_anim,"aw",%nobits
 1036              		.align	2
 1039              	g_ui_anim:
 1040 0000 0000     		.space	2
 1041              		.text
 1042              	.Letext0:
 1043              		.file 2 "/Applications/ArmGNUToolchain/15.2.rel1/arm-none-eabi/arm-none-eabi/include/machine/_defa
 1044              		.file 3 "/Applications/ArmGNUToolchain/15.2.rel1/arm-none-eabi/arm-none-eabi/include/sys/_stdint.h
 1045              		.file 4 "/Applications/ArmGNUToolchain/15.2.rel1/arm-none-eabi/lib/gcc/arm-none-eabi/15.2.1/includ
 1046              		.file 5 "Core/Inc/fan_control.h"
 1047              		.file 6 "Core/Inc/LCD_UI.h"
 1048              		.file 7 "/Applications/ArmGNUToolchain/15.2.rel1/arm-none-eabi/arm-none-eabi/include/string.h"
 1049              		.file 8 "/Applications/ArmGNUToolchain/15.2.rel1/arm-none-eabi/arm-none-eabi/include/stdio.h"
 1050              		.file 9 "Core/Inc/LCD.h"
 1051              		.file 10 "<built-in>"
ARM GAS  /var/folders/t9/y_chwk8j4cv2jjx6x9_h4twc0000gn/T//ccqAvOar.s 			page 25

