ARM GAS  /var/folders/t9/y_chwk8j4cv2jjx6x9_h4twc0000gn/T//ccKX2YF8.s 			page 1


   1              		.cpu cortex-m3
   2              		.arch armv7-m
   3              		.fpu softvfp
   4              		.eabi_attribute 20, 1
   5              		.eabi_attribute 21, 1
   6              		.eabi_attribute 23, 3
   7              		.eabi_attribute 24, 1
   8              		.eabi_attribute 25, 1
   9              		.eabi_attribute 26, 1
  10              		.eabi_attribute 30, 1
  11              		.eabi_attribute 34, 1
  12              		.eabi_attribute 18, 4
  13              		.file	"main.c"
  14              		.text
  15              	.Ltext0:
  16              		.cfi_sections	.debug_frame
  17              		.file 1 "Core/Src/main.c"
  18              		.section	.text.AFLC_BuildMaxRpmArray,"ax",%progbits
  19              		.align	1
  20              		.syntax unified
  21              		.thumb
  22              		.thumb_func
  24              	AFLC_BuildMaxRpmArray:
  25              	.LVL0:
  26              	.LFB74:
   1:Core/Src/main.c **** /* USER CODE BEGIN Header */
   2:Core/Src/main.c **** /**
   3:Core/Src/main.c ****   ******************************************************************************
   4:Core/Src/main.c ****   * @file           : main.c
   5:Core/Src/main.c ****   * @brief          : Main program body
   6:Core/Src/main.c ****   ******************************************************************************
   7:Core/Src/main.c ****   * @attention
   8:Core/Src/main.c ****   *
   9:Core/Src/main.c ****   * Copyright (c) 2026 STMicroelectronics.
  10:Core/Src/main.c ****   * All rights reserved.
  11:Core/Src/main.c ****   *
  12:Core/Src/main.c ****   * This software is licensed under terms that can be found in the LICENSE file
  13:Core/Src/main.c ****   * in the root directory of this software component.
  14:Core/Src/main.c ****   * If no LICENSE file comes with this software, it is provided AS-IS.
  15:Core/Src/main.c ****   *
  16:Core/Src/main.c ****   ******************************************************************************
  17:Core/Src/main.c ****   */
  18:Core/Src/main.c **** /* USER CODE END Header */
  19:Core/Src/main.c **** /* Includes ------------------------------------------------------------------*/
  20:Core/Src/main.c **** #include "main.h"
  21:Core/Src/main.c **** #include "tim.h"
  22:Core/Src/main.c **** #include "usart.h"
  23:Core/Src/main.c **** #include "gpio.h"
  24:Core/Src/main.c **** 
  25:Core/Src/main.c **** /* Private includes ----------------------------------------------------------*/
  26:Core/Src/main.c **** /* USER CODE BEGIN Includes */
  27:Core/Src/main.c **** #include "AFLCalcul.h"
  28:Core/Src/main.c **** #include "Profil.h"
  29:Core/Src/main.c **** #include "button.h"
  30:Core/Src/main.c **** #include "fan_control.h"
  31:Core/Src/main.c **** #include "led_status.h"
  32:Core/Src/main.c **** #include "tachometer.h"
ARM GAS  /var/folders/t9/y_chwk8j4cv2jjx6x9_h4twc0000gn/T//ccKX2YF8.s 			page 2


  33:Core/Src/main.c **** #include "temperature_stub.h"
  34:Core/Src/main.c **** #include "uart_cmd.h"
  35:Core/Src/main.c **** #include "ui_lcd.h"
  36:Core/Src/main.c **** /* USER CODE END Includes */
  37:Core/Src/main.c **** 
  38:Core/Src/main.c **** /*
  39:Core/Src/main.c ****  * main.c
  40:Core/Src/main.c ****  * ------
  41:Core/Src/main.c ****  * Fichier chef d'orchestre du projet.
  42:Core/Src/main.c ****  *
  43:Core/Src/main.c ****  * Il contient :
  44:Core/Src/main.c ****  * - l'initialisation generale
  45:Core/Src/main.c ****  * - la boucle infinie
  46:Core/Src/main.c ****  * - le scheduler cooperatif
  47:Core/Src/main.c ****  * - la machine a etats principale AFLC
  48:Core/Src/main.c ****  */
  49:Core/Src/main.c **** 
  50:Core/Src/main.c **** /* Private typedef -----------------------------------------------------------*/
  51:Core/Src/main.c **** /* USER CODE BEGIN PTD */
  52:Core/Src/main.c **** // Machine a etats de l'application.
  53:Core/Src/main.c **** typedef enum {
  54:Core/Src/main.c ****   AFLC_APP_BOOT = 0,
  55:Core/Src/main.c ****   AFLC_APP_PROFILES_CALCULATING,
  56:Core/Src/main.c ****   AFLC_APP_PROFILES_READY,
  57:Core/Src/main.c ****   AFLC_APP_WAIT_CONFIRM,
  58:Core/Src/main.c ****   AFLC_APP_STARTUP_TEST_INIT,
  59:Core/Src/main.c ****   AFLC_APP_STARTUP_TEST_RUN,
  60:Core/Src/main.c ****   AFLC_APP_STARTUP_TEST_EVAL,
  61:Core/Src/main.c ****   AFLC_APP_RUNTIME_CONTROL,
  62:Core/Src/main.c ****   AFLC_APP_SAFE_STATE
  63:Core/Src/main.c **** } AflcAppState_t;
  64:Core/Src/main.c **** 
  65:Core/Src/main.c **** // Contexte global de l'application.
  66:Core/Src/main.c **** // On centralise ici ce que l'etat principal doit retenir.
  67:Core/Src/main.c **** typedef struct {
  68:Core/Src/main.c ****   AflcAppState_t state;
  69:Core/Src/main.c ****   uint32_t state_entered_ms;
  70:Core/Src/main.c ****   const Profil_Result_t *profiles;
  71:Core/Src/main.c ****   TachometerSnapshot_t tach_snapshot;
  72:Core/Src/main.c ****   AFLCalcul_Output_t control_output;
  73:Core/Src/main.c ****   const TemperatureSnapshot_t *temperatures;
  74:Core/Src/main.c ****   uint8_t startup_passed_mask;
  75:Core/Src/main.c ****   uint8_t startup_fail_mask;
  76:Core/Src/main.c **** } AflcAppContext_t;
  77:Core/Src/main.c **** /* USER CODE END PTD */
  78:Core/Src/main.c **** 
  79:Core/Src/main.c **** /* Private define ------------------------------------------------------------*/
  80:Core/Src/main.c **** /* USER CODE BEGIN PD */
  81:Core/Src/main.c **** // Periodes des taches cooperatives.
  82:Core/Src/main.c **** #define TASK_BUTTON_PERIOD_MS         20UL
  83:Core/Src/main.c **** #define TASK_TACH_PERIOD_MS           50UL
  84:Core/Src/main.c **** #define TASK_FAN_PERIOD_MS            100UL
  85:Core/Src/main.c **** #define TASK_CONTROL_PERIOD_MS        250UL
  86:Core/Src/main.c **** #define TASK_LED_PERIOD_MS            50UL
  87:Core/Src/main.c **** #define TASK_TEMPERATURE_PERIOD_MS    250UL
  88:Core/Src/main.c **** #define PROFILES_READY_SHOW_MS        1500UL
  89:Core/Src/main.c **** #define STARTUP_TEST_DUTY_PERMILLE    250U
ARM GAS  /var/folders/t9/y_chwk8j4cv2jjx6x9_h4twc0000gn/T//ccKX2YF8.s 			page 3


  90:Core/Src/main.c **** #define STARTUP_TEST_TIMEOUT_MS       3000UL
  91:Core/Src/main.c **** #define STARTUP_TEST_PASS_RPM         200U
  92:Core/Src/main.c **** /* USER CODE END PD */
  93:Core/Src/main.c **** 
  94:Core/Src/main.c **** /* Private macro -------------------------------------------------------------*/
  95:Core/Src/main.c **** /* USER CODE BEGIN PM */
  96:Core/Src/main.c **** 
  97:Core/Src/main.c **** /* USER CODE END PM */
  98:Core/Src/main.c **** 
  99:Core/Src/main.c **** /* Private variables ---------------------------------------------------------*/
 100:Core/Src/main.c **** 
 101:Core/Src/main.c **** /* USER CODE BEGIN PV */
 102:Core/Src/main.c **** // Horloges logicielles des taches.
 103:Core/Src/main.c **** static uint32_t g_next_button_task_ms;
 104:Core/Src/main.c **** static uint32_t g_next_tach_task_ms;
 105:Core/Src/main.c **** static uint32_t g_next_fan_task_ms;
 106:Core/Src/main.c **** static uint32_t g_next_control_task_ms;
 107:Core/Src/main.c **** static uint32_t g_next_led_task_ms;
 108:Core/Src/main.c **** static uint32_t g_next_temperature_task_ms;
 109:Core/Src/main.c **** static AflcAppContext_t g_app;
 110:Core/Src/main.c **** /* USER CODE END PV */
 111:Core/Src/main.c **** 
 112:Core/Src/main.c **** /* Private function prototypes -----------------------------------------------*/
 113:Core/Src/main.c **** void SystemClock_Config(void);
 114:Core/Src/main.c **** /* USER CODE BEGIN PFP */
 115:Core/Src/main.c **** static void BootTrace(const char *text);
 116:Core/Src/main.c **** static void MX_AFLC_StartPeripherals(void);
 117:Core/Src/main.c **** static void AFLC_AppTask(uint32_t now_ms);
 118:Core/Src/main.c **** static void AFLC_AppEnterState(AflcAppState_t next_state, uint32_t now_ms);
 119:Core/Src/main.c **** static void AFLC_RuntimeStep(void);
 120:Core/Src/main.c **** static void AFLC_UpdateStartupPassMask(void);
 121:Core/Src/main.c **** static void AFLC_BuildMaxRpmArray(uint16_t max_rpm[PROFIL_FAN_COUNT]);
 122:Core/Src/main.c **** /* USER CODE END PFP */
 123:Core/Src/main.c **** 
 124:Core/Src/main.c **** /* Private user code ---------------------------------------------------------*/
 125:Core/Src/main.c **** /* USER CODE BEGIN 0 */
 126:Core/Src/main.c **** static void BootTrace(const char *text)
 127:Core/Src/main.c **** {
 128:Core/Src/main.c ****   size_t len = 0U;
 129:Core/Src/main.c **** 
 130:Core/Src/main.c ****   if (text == NULL)
 131:Core/Src/main.c ****   {
 132:Core/Src/main.c ****     return;
 133:Core/Src/main.c ****   }
 134:Core/Src/main.c **** 
 135:Core/Src/main.c ****   while (text[len] != '\0')
 136:Core/Src/main.c ****   {
 137:Core/Src/main.c ****     len++;
 138:Core/Src/main.c ****   }
 139:Core/Src/main.c **** 
 140:Core/Src/main.c ****   // Helper volontairement simple pour tracer le boot sur l'UART.
 141:Core/Src/main.c ****   (void)HAL_UART_Transmit(&huart1, (uint8_t *)text, (uint16_t)len, 100U);
 142:Core/Src/main.c **** }
 143:Core/Src/main.c **** 
 144:Core/Src/main.c **** /* USER CODE END 0 */
 145:Core/Src/main.c **** 
 146:Core/Src/main.c **** /**
ARM GAS  /var/folders/t9/y_chwk8j4cv2jjx6x9_h4twc0000gn/T//ccKX2YF8.s 			page 4


 147:Core/Src/main.c ****   * @brief  The application entry point.
 148:Core/Src/main.c ****   * @retval int
 149:Core/Src/main.c ****   */
 150:Core/Src/main.c **** int main(void)
 151:Core/Src/main.c **** {
 152:Core/Src/main.c **** 
 153:Core/Src/main.c ****   /* USER CODE BEGIN 1 */
 154:Core/Src/main.c **** 
 155:Core/Src/main.c ****   /* USER CODE END 1 */
 156:Core/Src/main.c **** 
 157:Core/Src/main.c ****   /* MCU Configuration--------------------------------------------------------*/
 158:Core/Src/main.c **** 
 159:Core/Src/main.c ****   /* Reset of all peripherals, Initializes the Flash interface and the Systick. */
 160:Core/Src/main.c ****   HAL_Init();
 161:Core/Src/main.c **** 
 162:Core/Src/main.c ****   /* USER CODE BEGIN Init */
 163:Core/Src/main.c **** 
 164:Core/Src/main.c ****   /* USER CODE END Init */
 165:Core/Src/main.c **** 
 166:Core/Src/main.c ****   /* Configure the system clock */
 167:Core/Src/main.c ****   SystemClock_Config();
 168:Core/Src/main.c **** 
 169:Core/Src/main.c ****   /* USER CODE BEGIN SysInit */
 170:Core/Src/main.c **** 
 171:Core/Src/main.c ****   /* USER CODE END SysInit */
 172:Core/Src/main.c **** 
 173:Core/Src/main.c ****   /* Initialize all configured peripherals */
 174:Core/Src/main.c ****   MX_GPIO_Init();
 175:Core/Src/main.c ****   MX_USART1_UART_Init();
 176:Core/Src/main.c ****   BootTrace("\r\n[BOOT] UART OK\r\n");
 177:Core/Src/main.c ****   MX_TIM2_Init();
 178:Core/Src/main.c ****   BootTrace("[BOOT] TIM2 OK\r\n");
 179:Core/Src/main.c ****   MX_TIM3_Init();
 180:Core/Src/main.c ****   BootTrace("[BOOT] TIM3 OK\r\n");
 181:Core/Src/main.c ****   /* USER CODE BEGIN 2 */
 182:Core/Src/main.c ****   // On demarre les peripheriques utiles au projet.
 183:Core/Src/main.c ****   MX_AFLC_StartPeripherals();
 184:Core/Src/main.c ****   BootTrace("[BOOT] PERIPH OK\r\n");
 185:Core/Src/main.c ****   Tachometer_Init();
 186:Core/Src/main.c ****   BootTrace("[BOOT] TACH OK\r\n");
 187:Core/Src/main.c ****   FanControl_Init(&htim3);
 188:Core/Src/main.c ****   BootTrace("[BOOT] FAN OK\r\n");
 189:Core/Src/main.c ****   LedStatus_Init();
 190:Core/Src/main.c ****   BootTrace("[BOOT] LED OK\r\n");
 191:Core/Src/main.c ****   Button_Init();
 192:Core/Src/main.c ****   BootTrace("[BOOT] BTN OK\r\n");
 193:Core/Src/main.c ****   TemperatureStub_Init();
 194:Core/Src/main.c ****   BootTrace("[BOOT] TEMP OK\r\n");
 195:Core/Src/main.c ****   Profil_Init();
 196:Core/Src/main.c ****   BootTrace("[BOOT] PROFIL OK\r\n");
 197:Core/Src/main.c ****   UI_LCD_Init();
 198:Core/Src/main.c ****   BootTrace("[BOOT] LCD OK\r\n");
 199:Core/Src/main.c ****   UART_Cmd_Init();
 200:Core/Src/main.c ****   BootTrace("[BOOT] APP OK\r\n");
 201:Core/Src/main.c **** 
 202:Core/Src/main.c ****   g_app.temperatures = TemperatureStub_GetSnapshot();
 203:Core/Src/main.c ****   g_app.profiles = NULL;
ARM GAS  /var/folders/t9/y_chwk8j4cv2jjx6x9_h4twc0000gn/T//ccKX2YF8.s 			page 5


 204:Core/Src/main.c ****   g_app.startup_passed_mask = 0U;
 205:Core/Src/main.c ****   g_app.startup_fail_mask = 0U;
 206:Core/Src/main.c **** 
 207:Core/Src/main.c ****   g_next_button_task_ms = HAL_GetTick();
 208:Core/Src/main.c ****   g_next_tach_task_ms = HAL_GetTick();
 209:Core/Src/main.c ****   g_next_fan_task_ms = HAL_GetTick();
 210:Core/Src/main.c ****   g_next_control_task_ms = HAL_GetTick();
 211:Core/Src/main.c ****   g_next_led_task_ms = HAL_GetTick();
 212:Core/Src/main.c ****   g_next_temperature_task_ms = HAL_GetTick();
 213:Core/Src/main.c **** 
 214:Core/Src/main.c ****   AFLC_AppEnterState(AFLC_APP_BOOT, HAL_GetTick());
 215:Core/Src/main.c ****   /* USER CODE END 2 */
 216:Core/Src/main.c **** 
 217:Core/Src/main.c ****   /* Infinite loop */
 218:Core/Src/main.c ****   /* USER CODE BEGIN WHILE */
 219:Core/Src/main.c ****   while (1)
 220:Core/Src/main.c ****   {
 221:Core/Src/main.c ****     // Scheduler cooperatif tres simple.
 222:Core/Src/main.c ****     // Chaque bloc teste son prochain deadline.
 223:Core/Src/main.c ****     // On evite ainsi un RTOS pour garder le projet lisible.
 224:Core/Src/main.c ****     uint32_t now_ms = HAL_GetTick();
 225:Core/Src/main.c **** 
 226:Core/Src/main.c ****     UART_Cmd_Task();
 227:Core/Src/main.c **** 
 228:Core/Src/main.c ****     if (now_ms >= g_next_button_task_ms)
 229:Core/Src/main.c ****     {
 230:Core/Src/main.c ****       g_next_button_task_ms = now_ms + TASK_BUTTON_PERIOD_MS;
 231:Core/Src/main.c ****       Button_Task();
 232:Core/Src/main.c ****     }
 233:Core/Src/main.c **** 
 234:Core/Src/main.c ****     if (now_ms >= g_next_tach_task_ms)
 235:Core/Src/main.c ****     {
 236:Core/Src/main.c ****       g_next_tach_task_ms = now_ms + TASK_TACH_PERIOD_MS;
 237:Core/Src/main.c ****       Tachometer_Task(now_ms);
 238:Core/Src/main.c ****     }
 239:Core/Src/main.c **** 
 240:Core/Src/main.c ****     if (now_ms >= g_next_fan_task_ms)
 241:Core/Src/main.c ****     {
 242:Core/Src/main.c ****       g_next_fan_task_ms = now_ms + TASK_FAN_PERIOD_MS;
 243:Core/Src/main.c ****       FanControl_Task(now_ms);
 244:Core/Src/main.c ****     }
 245:Core/Src/main.c **** 
 246:Core/Src/main.c ****     if (now_ms >= g_next_temperature_task_ms)
 247:Core/Src/main.c ****     {
 248:Core/Src/main.c ****       g_next_temperature_task_ms = now_ms + TASK_TEMPERATURE_PERIOD_MS;
 249:Core/Src/main.c ****       TemperatureStub_Task(now_ms);
 250:Core/Src/main.c ****       g_app.temperatures = TemperatureStub_GetSnapshot();
 251:Core/Src/main.c ****     }
 252:Core/Src/main.c **** 
 253:Core/Src/main.c ****     if (now_ms >= g_next_control_task_ms)
 254:Core/Src/main.c ****     {
 255:Core/Src/main.c ****       g_next_control_task_ms = now_ms + TASK_CONTROL_PERIOD_MS;
 256:Core/Src/main.c ****       AFLC_RuntimeStep();
 257:Core/Src/main.c ****     }
 258:Core/Src/main.c **** 
 259:Core/Src/main.c ****     AFLC_AppTask(now_ms);
 260:Core/Src/main.c ****     UI_LCD_Task(now_ms);
ARM GAS  /var/folders/t9/y_chwk8j4cv2jjx6x9_h4twc0000gn/T//ccKX2YF8.s 			page 6


 261:Core/Src/main.c **** 
 262:Core/Src/main.c ****     if (now_ms >= g_next_led_task_ms)
 263:Core/Src/main.c ****     {
 264:Core/Src/main.c ****       g_next_led_task_ms = now_ms + TASK_LED_PERIOD_MS;
 265:Core/Src/main.c ****       LedStatus_Task(now_ms);
 266:Core/Src/main.c ****     }
 267:Core/Src/main.c ****     /* USER CODE END WHILE */
 268:Core/Src/main.c **** 
 269:Core/Src/main.c ****     /* USER CODE BEGIN 3 */
 270:Core/Src/main.c ****   }
 271:Core/Src/main.c ****   /* USER CODE END 3 */
 272:Core/Src/main.c **** }
 273:Core/Src/main.c **** 
 274:Core/Src/main.c **** /**
 275:Core/Src/main.c ****   * @brief System Clock Configuration
 276:Core/Src/main.c ****   * @retval None
 277:Core/Src/main.c ****   */
 278:Core/Src/main.c **** void SystemClock_Config(void)
 279:Core/Src/main.c **** {
 280:Core/Src/main.c ****   RCC_OscInitTypeDef RCC_OscInitStruct = {0};
 281:Core/Src/main.c ****   RCC_ClkInitTypeDef RCC_ClkInitStruct = {0};
 282:Core/Src/main.c **** 
 283:Core/Src/main.c ****   /** Initializes the RCC Oscillators according to the specified parameters
 284:Core/Src/main.c ****   * in the RCC_OscInitTypeDef structure.
 285:Core/Src/main.c ****   */
 286:Core/Src/main.c ****   RCC_OscInitStruct.OscillatorType = RCC_OSCILLATORTYPE_HSI;
 287:Core/Src/main.c ****   RCC_OscInitStruct.HSIState = RCC_HSI_ON;
 288:Core/Src/main.c ****   RCC_OscInitStruct.HSICalibrationValue = RCC_HSICALIBRATION_DEFAULT;
 289:Core/Src/main.c ****   RCC_OscInitStruct.PLL.PLLState = RCC_PLL_NONE;
 290:Core/Src/main.c ****   if (HAL_RCC_OscConfig(&RCC_OscInitStruct) != HAL_OK)
 291:Core/Src/main.c ****   {
 292:Core/Src/main.c ****     Error_Handler();
 293:Core/Src/main.c ****   }
 294:Core/Src/main.c **** 
 295:Core/Src/main.c ****   /** Initializes the CPU, AHB and APB buses clocks
 296:Core/Src/main.c ****   */
 297:Core/Src/main.c ****   RCC_ClkInitStruct.ClockType = RCC_CLOCKTYPE_HCLK|RCC_CLOCKTYPE_SYSCLK
 298:Core/Src/main.c ****                               |RCC_CLOCKTYPE_PCLK1|RCC_CLOCKTYPE_PCLK2;
 299:Core/Src/main.c ****   RCC_ClkInitStruct.SYSCLKSource = RCC_SYSCLKSOURCE_HSI;
 300:Core/Src/main.c ****   RCC_ClkInitStruct.AHBCLKDivider = RCC_SYSCLK_DIV1;
 301:Core/Src/main.c ****   RCC_ClkInitStruct.APB1CLKDivider = RCC_HCLK_DIV1;
 302:Core/Src/main.c ****   RCC_ClkInitStruct.APB2CLKDivider = RCC_HCLK_DIV1;
 303:Core/Src/main.c **** 
 304:Core/Src/main.c ****   if (HAL_RCC_ClockConfig(&RCC_ClkInitStruct, FLASH_LATENCY_0) != HAL_OK)
 305:Core/Src/main.c ****   {
 306:Core/Src/main.c ****     Error_Handler();
 307:Core/Src/main.c ****   }
 308:Core/Src/main.c **** }
 309:Core/Src/main.c **** 
 310:Core/Src/main.c **** /* USER CODE BEGIN 4 */
 311:Core/Src/main.c **** void HAL_TIM_IC_CaptureCallback(TIM_HandleTypeDef *htim)
 312:Core/Src/main.c **** {
 313:Core/Src/main.c ****   Tachometer_OnCapture(htim);
 314:Core/Src/main.c **** }
 315:Core/Src/main.c **** 
 316:Core/Src/main.c **** static void MX_AFLC_StartPeripherals(void)
 317:Core/Src/main.c **** {
ARM GAS  /var/folders/t9/y_chwk8j4cv2jjx6x9_h4twc0000gn/T//ccKX2YF8.s 			page 7


 318:Core/Src/main.c ****   // Demarre les blocs deja configures par CubeMX.
 319:Core/Src/main.c **** 
 320:Core/Src/main.c ****   // TIM2 = input capture tach.
 321:Core/Src/main.c ****   if (HAL_TIM_IC_Start_IT(&htim2, TIM_CHANNEL_1) != HAL_OK)
 322:Core/Src/main.c ****   {
 323:Core/Src/main.c ****     Error_Handler();
 324:Core/Src/main.c ****   }
 325:Core/Src/main.c ****   if (HAL_TIM_IC_Start_IT(&htim2, TIM_CHANNEL_2) != HAL_OK)
 326:Core/Src/main.c ****   {
 327:Core/Src/main.c ****     Error_Handler();
 328:Core/Src/main.c ****   }
 329:Core/Src/main.c ****   if (HAL_TIM_IC_Start_IT(&htim2, TIM_CHANNEL_3) != HAL_OK)
 330:Core/Src/main.c ****   {
 331:Core/Src/main.c ****     Error_Handler();
 332:Core/Src/main.c ****   }
 333:Core/Src/main.c ****   if (HAL_TIM_IC_Start_IT(&htim2, TIM_CHANNEL_4) != HAL_OK)
 334:Core/Src/main.c ****   {
 335:Core/Src/main.c ****     Error_Handler();
 336:Core/Src/main.c ****   }
 337:Core/Src/main.c **** 
 338:Core/Src/main.c ****   // TIM3 = PWM fans.
 339:Core/Src/main.c ****   if (HAL_TIM_PWM_Start(&htim3, TIM_CHANNEL_1) != HAL_OK)
 340:Core/Src/main.c ****   {
 341:Core/Src/main.c ****     Error_Handler();
 342:Core/Src/main.c ****   }
 343:Core/Src/main.c ****   if (HAL_TIM_PWM_Start(&htim3, TIM_CHANNEL_2) != HAL_OK)
 344:Core/Src/main.c ****   {
 345:Core/Src/main.c ****     Error_Handler();
 346:Core/Src/main.c ****   }
 347:Core/Src/main.c ****   if (HAL_TIM_PWM_Start(&htim3, TIM_CHANNEL_3) != HAL_OK)
 348:Core/Src/main.c ****   {
 349:Core/Src/main.c ****     Error_Handler();
 350:Core/Src/main.c ****   }
 351:Core/Src/main.c ****   if (HAL_TIM_PWM_Start(&htim3, TIM_CHANNEL_4) != HAL_OK)
 352:Core/Src/main.c ****   {
 353:Core/Src/main.c ****     Error_Handler();
 354:Core/Src/main.c ****   }
 355:Core/Src/main.c **** }
 356:Core/Src/main.c **** 
 357:Core/Src/main.c **** static void AFLC_AppTask(uint32_t now_ms)
 358:Core/Src/main.c **** {
 359:Core/Src/main.c ****   // Machine a etats principale.
 360:Core/Src/main.c ****   // Une seule source de verite pour le flux de demarrage.
 361:Core/Src/main.c ****   // Toute la progression de l'application passe ici.
 362:Core/Src/main.c ****   switch (g_app.state)
 363:Core/Src/main.c ****   {
 364:Core/Src/main.c ****     case AFLC_APP_BOOT:
 365:Core/Src/main.c ****       AFLC_AppEnterState(AFLC_APP_PROFILES_CALCULATING, now_ms);
 366:Core/Src/main.c ****       break;
 367:Core/Src/main.c **** 
 368:Core/Src/main.c ****     case AFLC_APP_PROFILES_CALCULATING:
 369:Core/Src/main.c ****       // On calcule les profils une seule fois.
 370:Core/Src/main.c ****       Profil_CalculateAll();
 371:Core/Src/main.c ****       g_app.profiles = Profil_GetResult();
 372:Core/Src/main.c ****       if ((g_app.profiles != NULL) && g_app.profiles->ready && g_app.profiles->valid)
 373:Core/Src/main.c ****       {
 374:Core/Src/main.c ****         AFLC_AppEnterState(AFLC_APP_PROFILES_READY, now_ms);
ARM GAS  /var/folders/t9/y_chwk8j4cv2jjx6x9_h4twc0000gn/T//ccKX2YF8.s 			page 8


 375:Core/Src/main.c ****       }
 376:Core/Src/main.c ****       else
 377:Core/Src/main.c ****       {
 378:Core/Src/main.c ****         g_app.startup_fail_mask = 0x0FU;
 379:Core/Src/main.c ****         AFLC_AppEnterState(AFLC_APP_SAFE_STATE, now_ms);
 380:Core/Src/main.c ****       }
 381:Core/Src/main.c ****       break;
 382:Core/Src/main.c **** 
 383:Core/Src/main.c ****     case AFLC_APP_PROFILES_READY:
 384:Core/Src/main.c ****       // On laisse le temps de voir l'ecran.
 385:Core/Src/main.c ****       if ((now_ms - g_app.state_entered_ms) >= PROFILES_READY_SHOW_MS)
 386:Core/Src/main.c ****       {
 387:Core/Src/main.c ****         AFLC_AppEnterState(AFLC_APP_WAIT_CONFIRM, now_ms);
 388:Core/Src/main.c ****       }
 389:Core/Src/main.c ****       break;
 390:Core/Src/main.c **** 
 391:Core/Src/main.c ****     case AFLC_APP_WAIT_CONFIRM:
 392:Core/Src/main.c ****       // Le systeme attend un GO utilisateur.
 393:Core/Src/main.c ****       if (Button_IsConfirmPressed())
 394:Core/Src/main.c ****       {
 395:Core/Src/main.c ****         Button_ClearConfirm();
 396:Core/Src/main.c ****         AFLC_AppEnterState(AFLC_APP_STARTUP_TEST_INIT, now_ms);
 397:Core/Src/main.c ****       }
 398:Core/Src/main.c ****       break;
 399:Core/Src/main.c **** 
 400:Core/Src/main.c ****     case AFLC_APP_STARTUP_TEST_INIT:
 401:Core/Src/main.c ****       // Test simple : on force un petit duty puis on observe les tachs.
 402:Core/Src/main.c ****       g_app.startup_passed_mask = 0U;
 403:Core/Src/main.c ****       g_app.startup_fail_mask = 0U;
 404:Core/Src/main.c ****       FanControl_SetDutyPermilleAll(STARTUP_TEST_DUTY_PERMILLE);
 405:Core/Src/main.c ****       UI_LCD_ShowStartupTest(g_app.startup_passed_mask, g_app.startup_fail_mask, 0U);
 406:Core/Src/main.c ****       AFLC_AppEnterState(AFLC_APP_STARTUP_TEST_RUN, now_ms);
 407:Core/Src/main.c ****       break;
 408:Core/Src/main.c **** 
 409:Core/Src/main.c ****     case AFLC_APP_STARTUP_TEST_RUN:
 410:Core/Src/main.c ****       // Tant qu'on n'a pas vu les 4 fans, on continue.
 411:Core/Src/main.c ****       AFLC_UpdateStartupPassMask();
 412:Core/Src/main.c ****       UI_LCD_ShowStartupTest(g_app.startup_passed_mask, 0U, 0U);
 413:Core/Src/main.c **** 
 414:Core/Src/main.c ****       if (g_app.startup_passed_mask == 0x0FU)
 415:Core/Src/main.c ****       {
 416:Core/Src/main.c ****         AFLC_AppEnterState(AFLC_APP_STARTUP_TEST_EVAL, now_ms);
 417:Core/Src/main.c ****       }
 418:Core/Src/main.c ****       else if ((now_ms - g_app.state_entered_ms) >= STARTUP_TEST_TIMEOUT_MS)
 419:Core/Src/main.c ****       {
 420:Core/Src/main.c ****         g_app.startup_fail_mask = (uint8_t)(0x0FU & (uint8_t)(~g_app.startup_passed_mask));
 421:Core/Src/main.c ****         AFLC_AppEnterState(AFLC_APP_STARTUP_TEST_EVAL, now_ms);
 422:Core/Src/main.c ****       }
 423:Core/Src/main.c ****       break;
 424:Core/Src/main.c **** 
 425:Core/Src/main.c ****     case AFLC_APP_STARTUP_TEST_EVAL:
 426:Core/Src/main.c ****       // Si un fan manque, on bascule en safe state.
 427:Core/Src/main.c ****       UI_LCD_ShowStartupTest(g_app.startup_passed_mask, g_app.startup_fail_mask, 1U);
 428:Core/Src/main.c ****       if (g_app.startup_fail_mask == 0U)
 429:Core/Src/main.c ****       {
 430:Core/Src/main.c ****         AFLC_AppEnterState(AFLC_APP_RUNTIME_CONTROL, now_ms);
 431:Core/Src/main.c ****       }
ARM GAS  /var/folders/t9/y_chwk8j4cv2jjx6x9_h4twc0000gn/T//ccKX2YF8.s 			page 9


 432:Core/Src/main.c ****       else
 433:Core/Src/main.c ****       {
 434:Core/Src/main.c ****         AFLC_AppEnterState(AFLC_APP_SAFE_STATE, now_ms);
 435:Core/Src/main.c ****       }
 436:Core/Src/main.c ****       break;
 437:Core/Src/main.c **** 
 438:Core/Src/main.c ****     case AFLC_APP_RUNTIME_CONTROL:
 439:Core/Src/main.c ****       // En runtime, on rafraichit l'ecran avec les donnees courantes.
 440:Core/Src/main.c ****       UI_LCD_ShowRuntime(g_app.profiles,
 441:Core/Src/main.c ****                          g_app.temperatures,
 442:Core/Src/main.c ****                          &g_app.control_output,
 443:Core/Src/main.c ****                          FanControl_GetStatuses());
 444:Core/Src/main.c ****       break;
 445:Core/Src/main.c **** 
 446:Core/Src/main.c ****     case AFLC_APP_SAFE_STATE:
 447:Core/Src/main.c ****       // Etat de securite verrouille.
 448:Core/Src/main.c ****       FanControl_EnterSafeState();
 449:Core/Src/main.c ****       UI_LCD_ShowSafeState(g_app.startup_fail_mask);
 450:Core/Src/main.c ****       break;
 451:Core/Src/main.c **** 
 452:Core/Src/main.c ****     default:
 453:Core/Src/main.c ****       break;
 454:Core/Src/main.c ****   }
 455:Core/Src/main.c **** }
 456:Core/Src/main.c **** 
 457:Core/Src/main.c **** static void AFLC_AppEnterState(AflcAppState_t next_state, uint32_t now_ms)
 458:Core/Src/main.c **** {
 459:Core/Src/main.c ****   // Changement d'etat centralise.
 460:Core/Src/main.c ****   // Cela evite de disperser LEDs, LCD et timestamps un peu partout.
 461:Core/Src/main.c ****   g_app.state = next_state;
 462:Core/Src/main.c ****   g_app.state_entered_ms = now_ms;
 463:Core/Src/main.c **** 
 464:Core/Src/main.c ****   switch (next_state)
 465:Core/Src/main.c ****   {
 466:Core/Src/main.c ****     case AFLC_APP_BOOT:
 467:Core/Src/main.c ****       LedStatus_SetMode(LED_STATUS_MODE_BOOT);
 468:Core/Src/main.c ****       break;
 469:Core/Src/main.c **** 
 470:Core/Src/main.c ****     case AFLC_APP_PROFILES_CALCULATING:
 471:Core/Src/main.c ****       LedStatus_SetMode(LED_STATUS_MODE_BOOT);
 472:Core/Src/main.c ****       break;
 473:Core/Src/main.c **** 
 474:Core/Src/main.c ****     case AFLC_APP_PROFILES_READY:
 475:Core/Src/main.c ****       LedStatus_SetMode(LED_STATUS_MODE_PROFILES_READY);
 476:Core/Src/main.c ****       UI_LCD_ShowProfilesReady(g_app.profiles);
 477:Core/Src/main.c ****       break;
 478:Core/Src/main.c **** 
 479:Core/Src/main.c ****     case AFLC_APP_WAIT_CONFIRM:
 480:Core/Src/main.c ****       LedStatus_SetMode(LED_STATUS_MODE_WAIT_CONFIRM);
 481:Core/Src/main.c ****       UI_LCD_ShowWaitConfirm(g_app.profiles);
 482:Core/Src/main.c ****       break;
 483:Core/Src/main.c **** 
 484:Core/Src/main.c ****     case AFLC_APP_STARTUP_TEST_INIT:
 485:Core/Src/main.c ****     case AFLC_APP_STARTUP_TEST_RUN:
 486:Core/Src/main.c ****     case AFLC_APP_STARTUP_TEST_EVAL:
 487:Core/Src/main.c ****       LedStatus_SetMode(LED_STATUS_MODE_STARTUP_TEST);
 488:Core/Src/main.c ****       break;
ARM GAS  /var/folders/t9/y_chwk8j4cv2jjx6x9_h4twc0000gn/T//ccKX2YF8.s 			page 10


 489:Core/Src/main.c **** 
 490:Core/Src/main.c ****     case AFLC_APP_RUNTIME_CONTROL:
 491:Core/Src/main.c ****       LedStatus_SetMode(LED_STATUS_MODE_RUNTIME);
 492:Core/Src/main.c ****       break;
 493:Core/Src/main.c **** 
 494:Core/Src/main.c ****     case AFLC_APP_SAFE_STATE:
 495:Core/Src/main.c ****       LedStatus_SetMode(LED_STATUS_MODE_FAULT);
 496:Core/Src/main.c ****       break;
 497:Core/Src/main.c **** 
 498:Core/Src/main.c ****     default:
 499:Core/Src/main.c ****       break;
 500:Core/Src/main.c ****   }
 501:Core/Src/main.c **** }
 502:Core/Src/main.c **** 
 503:Core/Src/main.c **** static void AFLC_RuntimeStep(void)
 504:Core/Src/main.c **** {
 505:Core/Src/main.c ****   uint16_t max_rpm[PROFIL_FAN_COUNT];
 506:Core/Src/main.c **** 
 507:Core/Src/main.c ****   // On ne regule qu'en vrai mode runtime.
 508:Core/Src/main.c ****   if ((g_app.state != AFLC_APP_RUNTIME_CONTROL) || (g_app.profiles == NULL) || (g_app.temperatures 
 509:Core/Src/main.c ****   {
 510:Core/Src/main.c ****     return;
 511:Core/Src/main.c ****   }
 512:Core/Src/main.c **** 
 513:Core/Src/main.c ****   Tachometer_GetSnapshot(&g_app.tach_snapshot);
 514:Core/Src/main.c **** 
 515:Core/Src/main.c ****   // 1. Lire le RPM reel
 516:Core/Src/main.c ****   // 2. Calculer la cible
 517:Core/Src/main.c ****   // 3. Convertir la cible en PWM
 518:Core/Src/main.c ****   // C'est la chaine principale de regulation.
 519:Core/Src/main.c ****   AFLCalcul_Compute(g_app.profiles, g_app.temperatures, &g_app.tach_snapshot, &g_app.control_output
 520:Core/Src/main.c ****   AFLC_BuildMaxRpmArray(max_rpm);
 521:Core/Src/main.c ****   FanControl_SetTargetRpmArray(g_app.control_output.target_rpm, max_rpm);
 522:Core/Src/main.c **** }
 523:Core/Src/main.c **** 
 524:Core/Src/main.c **** static void AFLC_UpdateStartupPassMask(void)
 525:Core/Src/main.c **** {
 526:Core/Src/main.c ****   uint8_t index;
 527:Core/Src/main.c **** 
 528:Core/Src/main.c ****   Tachometer_GetSnapshot(&g_app.tach_snapshot);
 529:Core/Src/main.c **** 
 530:Core/Src/main.c ****   // Un bit par fan.
 531:Core/Src/main.c ****   // bit 0 -> fan 1, bit 1 -> fan 2, etc.
 532:Core/Src/main.c ****   for (index = 0U; index < PROFIL_FAN_COUNT; index++)
 533:Core/Src/main.c ****   {
 534:Core/Src/main.c ****     if (g_app.tach_snapshot.fans[index].rpm_filtered >= STARTUP_TEST_PASS_RPM)
 535:Core/Src/main.c ****     {
 536:Core/Src/main.c ****       g_app.startup_passed_mask |= (uint8_t)(1U << index);
 537:Core/Src/main.c ****     }
 538:Core/Src/main.c ****   }
 539:Core/Src/main.c **** }
 540:Core/Src/main.c **** 
 541:Core/Src/main.c **** static void AFLC_BuildMaxRpmArray(uint16_t max_rpm[PROFIL_FAN_COUNT])
 542:Core/Src/main.c **** {
  27              		.loc 1 542 1 view -0
  28              		.cfi_startproc
  29              		@ args = 0, pretend = 0, frame = 0
ARM GAS  /var/folders/t9/y_chwk8j4cv2jjx6x9_h4twc0000gn/T//ccKX2YF8.s 			page 11


  30              		@ frame_needed = 0, uses_anonymous_args = 0
  31              		@ link register save eliminated.
 543:Core/Src/main.c ****   uint8_t index;
  32              		.loc 1 543 3 view .LVU1
 544:Core/Src/main.c **** 
 545:Core/Src/main.c ****   if ((max_rpm == NULL) || (g_app.profiles == NULL))
  33              		.loc 1 545 3 view .LVU2
  34              		.loc 1 545 6 is_stmt 0 view .LVU3
  35 0000 8446     		mov	ip, r0
  36 0002 88B1     		cbz	r0, .L1
  37              		.loc 1 545 34 discriminator 1 view .LVU4
  38 0004 094B     		ldr	r3, .L5
  39 0006 9B68     		ldr	r3, [r3, #8]
  40              		.loc 1 545 25 discriminator 1 view .LVU5
  41 0008 73B1     		cbz	r3, .L1
 546:Core/Src/main.c ****   {
 547:Core/Src/main.c ****     return;
 548:Core/Src/main.c ****   }
 549:Core/Src/main.c **** 
 550:Core/Src/main.c ****   // FanControl attend un tableau simple de max RPM.
 551:Core/Src/main.c ****   // On extrait seulement le max_rpm de chaque profil.
 552:Core/Src/main.c ****   for (index = 0U; index < PROFIL_FAN_COUNT; index++)
  42              		.loc 1 552 14 view .LVU6
  43 000a 0023     		movs	r3, #0
  44 000c 0AE0     		b	.L3
  45              	.LVL1:
  46              	.L4:
 553:Core/Src/main.c ****   {
 554:Core/Src/main.c ****     max_rpm[index] = g_app.profiles->fans[index].max_rpm;
  47              		.loc 1 554 5 is_stmt 1 view .LVU7
  48              		.loc 1 554 27 is_stmt 0 view .LVU8
  49 000e 074A     		ldr	r2, .L5
  50 0010 9268     		ldr	r2, [r2, #8]
  51              		.loc 1 554 49 view .LVU9
  52 0012 C3EBC301 		rsb	r1, r3, r3, lsl #3
  53 0016 02EB4102 		add	r2, r2, r1, lsl #1
  54 001a 1289     		ldrh	r2, [r2, #8]
  55              		.loc 1 554 20 view .LVU10
  56 001c 2CF81320 		strh	r2, [ip, r3, lsl #1]	@ movhi
 552:Core/Src/main.c ****   {
  57              		.loc 1 552 51 is_stmt 1 discriminator 3 view .LVU11
  58 0020 0133     		adds	r3, r3, #1
  59              	.LVL2:
 552:Core/Src/main.c ****   {
  60              		.loc 1 552 51 is_stmt 0 discriminator 3 view .LVU12
  61 0022 DBB2     		uxtb	r3, r3
  62              	.LVL3:
  63              	.L3:
 552:Core/Src/main.c ****   {
  64              		.loc 1 552 26 is_stmt 1 discriminator 1 view .LVU13
  65 0024 032B     		cmp	r3, #3
  66 0026 F2D9     		bls	.L4
  67              	.LVL4:
  68              	.L1:
 555:Core/Src/main.c ****   }
 556:Core/Src/main.c **** }
  69              		.loc 1 556 1 is_stmt 0 view .LVU14
ARM GAS  /var/folders/t9/y_chwk8j4cv2jjx6x9_h4twc0000gn/T//ccKX2YF8.s 			page 12


  70 0028 7047     		bx	lr
  71              	.L6:
  72 002a 00BF     		.align	2
  73              	.L5:
  74 002c 00000000 		.word	g_app
  75              		.cfi_endproc
  76              	.LFE74:
  78              		.section	.text.BootTrace,"ax",%progbits
  79              		.align	1
  80              		.syntax unified
  81              		.thumb
  82              		.thumb_func
  84              	BootTrace:
  85              	.LVL5:
  86              	.LFB65:
 127:Core/Src/main.c ****   size_t len = 0U;
  87              		.loc 1 127 1 is_stmt 1 view -0
  88              		.cfi_startproc
  89              		@ args = 0, pretend = 0, frame = 0
  90              		@ frame_needed = 0, uses_anonymous_args = 0
 128:Core/Src/main.c **** 
  91              		.loc 1 128 3 view .LVU16
 130:Core/Src/main.c ****   {
  92              		.loc 1 130 3 view .LVU17
 130:Core/Src/main.c ****   {
  93              		.loc 1 130 6 is_stmt 0 view .LVU18
  94 0000 68B1     		cbz	r0, .L12
 127:Core/Src/main.c ****   size_t len = 0U;
  95              		.loc 1 127 1 view .LVU19
  96 0002 08B5     		push	{r3, lr}
  97              	.LCFI0:
  98              		.cfi_def_cfa_offset 8
  99              		.cfi_offset 3, -8
 100              		.cfi_offset 14, -4
 101 0004 0146     		mov	r1, r0
 128:Core/Src/main.c **** 
 102              		.loc 1 128 10 view .LVU20
 103 0006 0022     		movs	r2, #0
 104 0008 00E0     		b	.L9
 105              	.LVL6:
 106              	.L10:
 137:Core/Src/main.c ****   }
 107              		.loc 1 137 5 is_stmt 1 view .LVU21
 137:Core/Src/main.c ****   }
 108              		.loc 1 137 8 is_stmt 0 view .LVU22
 109 000a 0132     		adds	r2, r2, #1
 110              	.LVL7:
 111              	.L9:
 135:Core/Src/main.c ****   {
 112              		.loc 1 135 20 is_stmt 1 view .LVU23
 135:Core/Src/main.c ****   {
 113              		.loc 1 135 14 is_stmt 0 view .LVU24
 114 000c 8B5C     		ldrb	r3, [r1, r2]	@ zero_extendqisi2
 135:Core/Src/main.c ****   {
 115              		.loc 1 135 20 view .LVU25
 116 000e 002B     		cmp	r3, #0
 117 0010 FBD1     		bne	.L10
ARM GAS  /var/folders/t9/y_chwk8j4cv2jjx6x9_h4twc0000gn/T//ccKX2YF8.s 			page 13


 141:Core/Src/main.c **** }
 118              		.loc 1 141 3 is_stmt 1 view .LVU26
 141:Core/Src/main.c **** }
 119              		.loc 1 141 9 is_stmt 0 view .LVU27
 120 0012 6423     		movs	r3, #100
 121 0014 92B2     		uxth	r2, r2
 122              	.LVL8:
 141:Core/Src/main.c **** }
 123              		.loc 1 141 9 view .LVU28
 124 0016 0248     		ldr	r0, .L15
 125              	.LVL9:
 141:Core/Src/main.c **** }
 126              		.loc 1 141 9 view .LVU29
 127 0018 FFF7FEFF 		bl	HAL_UART_Transmit
 128              	.LVL10:
 142:Core/Src/main.c **** 
 129              		.loc 1 142 1 view .LVU30
 130 001c 08BD     		pop	{r3, pc}
 131              	.LVL11:
 132              	.L12:
 133              	.LCFI1:
 134              		.cfi_def_cfa_offset 0
 135              		.cfi_restore 3
 136              		.cfi_restore 14
 142:Core/Src/main.c **** 
 137              		.loc 1 142 1 view .LVU31
 138 001e 7047     		bx	lr
 139              	.L16:
 140              		.align	2
 141              	.L15:
 142 0020 00000000 		.word	huart1
 143              		.cfi_endproc
 144              	.LFE65:
 146              		.section	.text.AFLC_AppEnterState,"ax",%progbits
 147              		.align	1
 148              		.syntax unified
 149              		.thumb
 150              		.thumb_func
 152              	AFLC_AppEnterState:
 153              	.LVL12:
 154              	.LFB71:
 458:Core/Src/main.c ****   // Changement d'etat centralise.
 155              		.loc 1 458 1 is_stmt 1 view -0
 156              		.cfi_startproc
 157              		@ args = 0, pretend = 0, frame = 0
 158              		@ frame_needed = 0, uses_anonymous_args = 0
 458:Core/Src/main.c ****   // Changement d'etat centralise.
 159              		.loc 1 458 1 is_stmt 0 view .LVU33
 160 0000 08B5     		push	{r3, lr}
 161              	.LCFI2:
 162              		.cfi_def_cfa_offset 8
 163              		.cfi_offset 3, -8
 164              		.cfi_offset 14, -4
 461:Core/Src/main.c ****   g_app.state_entered_ms = now_ms;
 165              		.loc 1 461 3 is_stmt 1 view .LVU34
 461:Core/Src/main.c ****   g_app.state_entered_ms = now_ms;
 166              		.loc 1 461 15 is_stmt 0 view .LVU35
ARM GAS  /var/folders/t9/y_chwk8j4cv2jjx6x9_h4twc0000gn/T//ccKX2YF8.s 			page 14


 167 0002 1B4B     		ldr	r3, .L30
 168 0004 1870     		strb	r0, [r3]
 462:Core/Src/main.c **** 
 169              		.loc 1 462 3 is_stmt 1 view .LVU36
 462:Core/Src/main.c **** 
 170              		.loc 1 462 26 is_stmt 0 view .LVU37
 171 0006 5960     		str	r1, [r3, #4]
 464:Core/Src/main.c ****   {
 172              		.loc 1 464 3 is_stmt 1 view .LVU38
 173 0008 0328     		cmp	r0, #3
 174 000a 25D0     		beq	.L18
 175 000c 07D8     		bhi	.L19
 176 000e 0128     		cmp	r0, #1
 177 0010 16D0     		beq	.L20
 178 0012 0228     		cmp	r0, #2
 179 0014 18D0     		beq	.L21
 180 0016 08B9     		cbnz	r0, .L17
 467:Core/Src/main.c ****       break;
 181              		.loc 1 467 7 view .LVU39
 182 0018 FFF7FEFF 		bl	LedStatus_SetMode
 183              	.LVL13:
 468:Core/Src/main.c **** 
 184              		.loc 1 468 7 view .LVU40
 185              	.L17:
 501:Core/Src/main.c **** 
 186              		.loc 1 501 1 is_stmt 0 view .LVU41
 187 001c 08BD     		pop	{r3, pc}
 188              	.LVL14:
 189              	.L19:
 464:Core/Src/main.c ****   {
 190              		.loc 1 464 3 view .LVU42
 191 001e 0728     		cmp	r0, #7
 192 0020 22D0     		beq	.L24
 193 0022 07D8     		bhi	.L25
 194 0024 0438     		subs	r0, r0, #4
 195              	.LVL15:
 464:Core/Src/main.c ****   {
 196              		.loc 1 464 3 view .LVU43
 197 0026 C0B2     		uxtb	r0, r0
 198 0028 0228     		cmp	r0, #2
 199 002a F7D8     		bhi	.L17
 487:Core/Src/main.c ****       break;
 200              		.loc 1 487 7 is_stmt 1 view .LVU44
 201 002c 0320     		movs	r0, #3
 202 002e FFF7FEFF 		bl	LedStatus_SetMode
 203              	.LVL16:
 488:Core/Src/main.c **** 
 204              		.loc 1 488 7 view .LVU45
 205 0032 F3E7     		b	.L17
 206              	.LVL17:
 207              	.L25:
 464:Core/Src/main.c ****   {
 208              		.loc 1 464 3 is_stmt 0 view .LVU46
 209 0034 0828     		cmp	r0, #8
 210 0036 F1D1     		bne	.L17
 495:Core/Src/main.c ****       break;
 211              		.loc 1 495 7 is_stmt 1 view .LVU47
ARM GAS  /var/folders/t9/y_chwk8j4cv2jjx6x9_h4twc0000gn/T//ccKX2YF8.s 			page 15


 212 0038 0520     		movs	r0, #5
 213              	.LVL18:
 495:Core/Src/main.c ****       break;
 214              		.loc 1 495 7 is_stmt 0 view .LVU48
 215 003a FFF7FEFF 		bl	LedStatus_SetMode
 216              	.LVL19:
 496:Core/Src/main.c **** 
 217              		.loc 1 496 7 is_stmt 1 view .LVU49
 501:Core/Src/main.c **** 
 218              		.loc 1 501 1 is_stmt 0 view .LVU50
 219 003e EDE7     		b	.L17
 220              	.LVL20:
 221              	.L20:
 471:Core/Src/main.c ****       break;
 222              		.loc 1 471 7 is_stmt 1 view .LVU51
 223 0040 0020     		movs	r0, #0
 224              	.LVL21:
 471:Core/Src/main.c ****       break;
 225              		.loc 1 471 7 is_stmt 0 view .LVU52
 226 0042 FFF7FEFF 		bl	LedStatus_SetMode
 227              	.LVL22:
 472:Core/Src/main.c **** 
 228              		.loc 1 472 7 is_stmt 1 view .LVU53
 229 0046 E9E7     		b	.L17
 230              	.LVL23:
 231              	.L21:
 475:Core/Src/main.c ****       UI_LCD_ShowProfilesReady(g_app.profiles);
 232              		.loc 1 475 7 view .LVU54
 233 0048 0120     		movs	r0, #1
 234              	.LVL24:
 475:Core/Src/main.c ****       UI_LCD_ShowProfilesReady(g_app.profiles);
 235              		.loc 1 475 7 is_stmt 0 view .LVU55
 236 004a FFF7FEFF 		bl	LedStatus_SetMode
 237              	.LVL25:
 476:Core/Src/main.c ****       break;
 238              		.loc 1 476 7 is_stmt 1 view .LVU56
 239 004e 084B     		ldr	r3, .L30
 240 0050 9868     		ldr	r0, [r3, #8]
 241 0052 FFF7FEFF 		bl	UI_LCD_ShowProfilesReady
 242              	.LVL26:
 477:Core/Src/main.c **** 
 243              		.loc 1 477 7 view .LVU57
 244 0056 E1E7     		b	.L17
 245              	.LVL27:
 246              	.L18:
 480:Core/Src/main.c ****       UI_LCD_ShowWaitConfirm(g_app.profiles);
 247              		.loc 1 480 7 view .LVU58
 248 0058 0220     		movs	r0, #2
 249              	.LVL28:
 480:Core/Src/main.c ****       UI_LCD_ShowWaitConfirm(g_app.profiles);
 250              		.loc 1 480 7 is_stmt 0 view .LVU59
 251 005a FFF7FEFF 		bl	LedStatus_SetMode
 252              	.LVL29:
 481:Core/Src/main.c ****       break;
 253              		.loc 1 481 7 is_stmt 1 view .LVU60
 254 005e 044B     		ldr	r3, .L30
 255 0060 9868     		ldr	r0, [r3, #8]
ARM GAS  /var/folders/t9/y_chwk8j4cv2jjx6x9_h4twc0000gn/T//ccKX2YF8.s 			page 16


 256 0062 FFF7FEFF 		bl	UI_LCD_ShowWaitConfirm
 257              	.LVL30:
 482:Core/Src/main.c **** 
 258              		.loc 1 482 7 view .LVU61
 259 0066 D9E7     		b	.L17
 260              	.LVL31:
 261              	.L24:
 491:Core/Src/main.c ****       break;
 262              		.loc 1 491 7 view .LVU62
 263 0068 0420     		movs	r0, #4
 264              	.LVL32:
 491:Core/Src/main.c ****       break;
 265              		.loc 1 491 7 is_stmt 0 view .LVU63
 266 006a FFF7FEFF 		bl	LedStatus_SetMode
 267              	.LVL33:
 492:Core/Src/main.c **** 
 268              		.loc 1 492 7 is_stmt 1 view .LVU64
 269 006e D5E7     		b	.L17
 270              	.L31:
 271              		.align	2
 272              	.L30:
 273 0070 00000000 		.word	g_app
 274              		.cfi_endproc
 275              	.LFE71:
 277              		.section	.text.AFLC_UpdateStartupPassMask,"ax",%progbits
 278              		.align	1
 279              		.syntax unified
 280              		.thumb
 281              		.thumb_func
 283              	AFLC_UpdateStartupPassMask:
 284              	.LFB73:
 525:Core/Src/main.c ****   uint8_t index;
 285              		.loc 1 525 1 view -0
 286              		.cfi_startproc
 287              		@ args = 0, pretend = 0, frame = 0
 288              		@ frame_needed = 0, uses_anonymous_args = 0
 289 0000 08B5     		push	{r3, lr}
 290              	.LCFI3:
 291              		.cfi_def_cfa_offset 8
 292              		.cfi_offset 3, -8
 293              		.cfi_offset 14, -4
 526:Core/Src/main.c **** 
 294              		.loc 1 526 3 view .LVU66
 528:Core/Src/main.c **** 
 295              		.loc 1 528 3 view .LVU67
 296 0002 0E48     		ldr	r0, .L38
 297 0004 FFF7FEFF 		bl	Tachometer_GetSnapshot
 298              	.LVL34:
 532:Core/Src/main.c ****   {
 299              		.loc 1 532 3 view .LVU68
 532:Core/Src/main.c ****   {
 300              		.loc 1 532 14 is_stmt 0 view .LVU69
 301 0008 0023     		movs	r3, #0
 532:Core/Src/main.c ****   {
 302              		.loc 1 532 3 view .LVU70
 303 000a 01E0     		b	.L33
 304              	.LVL35:
ARM GAS  /var/folders/t9/y_chwk8j4cv2jjx6x9_h4twc0000gn/T//ccKX2YF8.s 			page 17


 305              	.L34:
 532:Core/Src/main.c ****   {
 306              		.loc 1 532 51 is_stmt 1 discriminator 2 view .LVU71
 307 000c 0133     		adds	r3, r3, #1
 308              	.LVL36:
 532:Core/Src/main.c ****   {
 309              		.loc 1 532 51 is_stmt 0 discriminator 2 view .LVU72
 310 000e DBB2     		uxtb	r3, r3
 311              	.LVL37:
 312              	.L33:
 532:Core/Src/main.c ****   {
 313              		.loc 1 532 26 is_stmt 1 discriminator 1 view .LVU73
 314 0010 032B     		cmp	r3, #3
 315 0012 11D8     		bhi	.L37
 534:Core/Src/main.c ****     {
 316              		.loc 1 534 5 view .LVU74
 534:Core/Src/main.c ****     {
 317              		.loc 1 534 40 is_stmt 0 view .LVU75
 318 0014 03EB4301 		add	r1, r3, r3, lsl #1
 319 0018 094A     		ldr	r2, .L38+4
 320 001a 02EB4102 		add	r2, r2, r1, lsl #1
 321 001e D289     		ldrh	r2, [r2, #14]
 534:Core/Src/main.c ****     {
 322              		.loc 1 534 8 view .LVU76
 323 0020 C72A     		cmp	r2, #199
 324 0022 F3D9     		bls	.L34
 536:Core/Src/main.c ****     }
 325              		.loc 1 536 7 is_stmt 1 view .LVU77
 536:Core/Src/main.c ****     }
 326              		.loc 1 536 12 is_stmt 0 view .LVU78
 327 0024 0648     		ldr	r0, .L38+4
 328 0026 90F83010 		ldrb	r1, [r0, #48]	@ zero_extendqisi2
 536:Core/Src/main.c ****     }
 329              		.loc 1 536 49 view .LVU79
 330 002a 0122     		movs	r2, #1
 331 002c 9A40     		lsls	r2, r2, r3
 536:Core/Src/main.c ****     }
 332              		.loc 1 536 36 view .LVU80
 333 002e D2B2     		uxtb	r2, r2
 536:Core/Src/main.c ****     }
 334              		.loc 1 536 33 view .LVU81
 335 0030 0A43     		orrs	r2, r2, r1
 336 0032 80F83020 		strb	r2, [r0, #48]
 337 0036 E9E7     		b	.L34
 338              	.L37:
 539:Core/Src/main.c **** 
 339              		.loc 1 539 1 view .LVU82
 340 0038 08BD     		pop	{r3, pc}
 341              	.LVL38:
 342              	.L39:
 539:Core/Src/main.c **** 
 343              		.loc 1 539 1 view .LVU83
 344 003a 00BF     		.align	2
 345              	.L38:
 346 003c 0C000000 		.word	g_app+12
 347 0040 00000000 		.word	g_app
 348              		.cfi_endproc
ARM GAS  /var/folders/t9/y_chwk8j4cv2jjx6x9_h4twc0000gn/T//ccKX2YF8.s 			page 18


 349              	.LFE73:
 351              		.section	.text.AFLC_RuntimeStep,"ax",%progbits
 352              		.align	1
 353              		.syntax unified
 354              		.thumb
 355              		.thumb_func
 357              	AFLC_RuntimeStep:
 358              	.LFB72:
 504:Core/Src/main.c ****   uint16_t max_rpm[PROFIL_FAN_COUNT];
 359              		.loc 1 504 1 is_stmt 1 view -0
 360              		.cfi_startproc
 361              		@ args = 0, pretend = 0, frame = 8
 362              		@ frame_needed = 0, uses_anonymous_args = 0
 505:Core/Src/main.c **** 
 363              		.loc 1 505 3 view .LVU85
 508:Core/Src/main.c ****   {
 364              		.loc 1 508 3 view .LVU86
 508:Core/Src/main.c ****   {
 365              		.loc 1 508 13 is_stmt 0 view .LVU87
 366 0000 114B     		ldr	r3, .L48
 367 0002 1B78     		ldrb	r3, [r3]	@ zero_extendqisi2
 508:Core/Src/main.c ****   {
 368              		.loc 1 508 6 view .LVU88
 369 0004 072B     		cmp	r3, #7
 370 0006 1DD1     		bne	.L45
 508:Core/Src/main.c ****   {
 371              		.loc 1 508 58 discriminator 1 view .LVU89
 372 0008 0F4B     		ldr	r3, .L48
 373 000a 9B68     		ldr	r3, [r3, #8]
 508:Core/Src/main.c ****   {
 374              		.loc 1 508 49 discriminator 1 view .LVU90
 375 000c D3B1     		cbz	r3, .L45
 508:Core/Src/main.c ****   {
 376              		.loc 1 508 86 discriminator 2 view .LVU91
 377 000e 0E4B     		ldr	r3, .L48
 378 0010 DB6A     		ldr	r3, [r3, #44]
 508:Core/Src/main.c ****   {
 379              		.loc 1 508 77 discriminator 2 view .LVU92
 380 0012 BBB1     		cbz	r3, .L45
 504:Core/Src/main.c ****   uint16_t max_rpm[PROFIL_FAN_COUNT];
 381              		.loc 1 504 1 view .LVU93
 382 0014 00B5     		push	{lr}
 383              	.LCFI4:
 384              		.cfi_def_cfa_offset 4
 385              		.cfi_offset 14, -4
 386 0016 83B0     		sub	sp, sp, #12
 387              	.LCFI5:
 388              		.cfi_def_cfa_offset 16
 513:Core/Src/main.c **** 
 389              		.loc 1 513 3 is_stmt 1 view .LVU94
 390 0018 0C48     		ldr	r0, .L48+4
 391 001a FFF7FEFF 		bl	Tachometer_GetSnapshot
 392              	.LVL39:
 519:Core/Src/main.c ****   AFLC_BuildMaxRpmArray(max_rpm);
 393              		.loc 1 519 3 view .LVU95
 394 001e 0B4B     		ldr	r3, .L48+4
 395 0020 A3F10C00 		sub	r0, r3, #12
ARM GAS  /var/folders/t9/y_chwk8j4cv2jjx6x9_h4twc0000gn/T//ccKX2YF8.s 			page 19


 396 0024 1833     		adds	r3, r3, #24
 397 0026 00F10C02 		add	r2, r0, #12
 398 002a C16A     		ldr	r1, [r0, #44]
 399 002c 8068     		ldr	r0, [r0, #8]
 400 002e FFF7FEFF 		bl	AFLCalcul_Compute
 401              	.LVL40:
 520:Core/Src/main.c ****   FanControl_SetTargetRpmArray(g_app.control_output.target_rpm, max_rpm);
 402              		.loc 1 520 3 view .LVU96
 403 0032 6846     		mov	r0, sp
 404 0034 FFF7FEFF 		bl	AFLC_BuildMaxRpmArray
 405              	.LVL41:
 521:Core/Src/main.c **** }
 406              		.loc 1 521 3 view .LVU97
 407 0038 6946     		mov	r1, sp
 408 003a 0548     		ldr	r0, .L48+8
 409 003c FFF7FEFF 		bl	FanControl_SetTargetRpmArray
 410              	.LVL42:
 522:Core/Src/main.c **** 
 411              		.loc 1 522 1 is_stmt 0 view .LVU98
 412 0040 03B0     		add	sp, sp, #12
 413              	.LCFI6:
 414              		.cfi_def_cfa_offset 4
 415              		@ sp needed
 416 0042 00BD     		pop	{pc}
 417              	.L45:
 418              	.LCFI7:
 419              		.cfi_def_cfa_offset 0
 420              		.cfi_restore 14
 421 0044 7047     		bx	lr
 422              	.L49:
 423 0046 00BF     		.align	2
 424              	.L48:
 425 0048 00000000 		.word	g_app
 426 004c 0C000000 		.word	g_app+12
 427 0050 24000000 		.word	g_app+36
 428              		.cfi_endproc
 429              	.LFE72:
 431              		.section	.text.AFLC_AppTask,"ax",%progbits
 432              		.align	1
 433              		.syntax unified
 434              		.thumb
 435              		.thumb_func
 437              	AFLC_AppTask:
 438              	.LVL43:
 439              	.LFB70:
 358:Core/Src/main.c ****   // Machine a etats principale.
 440              		.loc 1 358 1 is_stmt 1 view -0
 441              		.cfi_startproc
 442              		@ args = 0, pretend = 0, frame = 0
 443              		@ frame_needed = 0, uses_anonymous_args = 0
 358:Core/Src/main.c ****   // Machine a etats principale.
 444              		.loc 1 358 1 is_stmt 0 view .LVU100
 445 0000 70B5     		push	{r4, r5, r6, lr}
 446              	.LCFI8:
 447              		.cfi_def_cfa_offset 16
 448              		.cfi_offset 4, -16
 449              		.cfi_offset 5, -12
ARM GAS  /var/folders/t9/y_chwk8j4cv2jjx6x9_h4twc0000gn/T//ccKX2YF8.s 			page 20


 450              		.cfi_offset 6, -8
 451              		.cfi_offset 14, -4
 452 0002 0546     		mov	r5, r0
 362:Core/Src/main.c ****   {
 453              		.loc 1 362 3 is_stmt 1 view .LVU101
 362:Core/Src/main.c ****   {
 454              		.loc 1 362 16 is_stmt 0 view .LVU102
 455 0004 594B     		ldr	r3, .L71
 456 0006 1B78     		ldrb	r3, [r3]	@ zero_extendqisi2
 362:Core/Src/main.c ****   {
 457              		.loc 1 362 3 view .LVU103
 458 0008 042B     		cmp	r3, #4
 459 000a 61D0     		beq	.L51
 460 000c 1AD9     		bls	.L68
 461 000e 072B     		cmp	r3, #7
 462 0010 00F09F80 		beq	.L59
 463 0014 3CD8     		bhi	.L60
 464 0016 052B     		cmp	r3, #5
 465 0018 71D0     		beq	.L61
 466 001a 062B     		cmp	r3, #6
 467 001c 46D1     		bne	.L50
 427:Core/Src/main.c ****       if (g_app.startup_fail_mask == 0U)
 468              		.loc 1 427 7 is_stmt 1 view .LVU104
 469 001e 0122     		movs	r2, #1
 470 0020 524B     		ldr	r3, .L71
 471 0022 93F83110 		ldrb	r1, [r3, #49]	@ zero_extendqisi2
 472 0026 1C46     		mov	r4, r3
 473 0028 93F83000 		ldrb	r0, [r3, #48]	@ zero_extendqisi2
 474              	.LVL44:
 427:Core/Src/main.c ****       if (g_app.startup_fail_mask == 0U)
 475              		.loc 1 427 7 is_stmt 0 view .LVU105
 476 002c FFF7FEFF 		bl	UI_LCD_ShowStartupTest
 477              	.LVL45:
 428:Core/Src/main.c ****       {
 478              		.loc 1 428 7 is_stmt 1 view .LVU106
 428:Core/Src/main.c ****       {
 479              		.loc 1 428 16 is_stmt 0 view .LVU107
 480 0030 94F83130 		ldrb	r3, [r4, #49]	@ zero_extendqisi2
 428:Core/Src/main.c ****       {
 481              		.loc 1 428 10 view .LVU108
 482 0034 002B     		cmp	r3, #0
 483 0036 40F08780 		bne	.L66
 430:Core/Src/main.c ****       }
 484              		.loc 1 430 9 is_stmt 1 view .LVU109
 485 003a 2946     		mov	r1, r5
 486 003c 0720     		movs	r0, #7
 487 003e FFF7FEFF 		bl	AFLC_AppEnterState
 488              	.LVL46:
 489 0042 33E0     		b	.L50
 490              	.LVL47:
 491              	.L68:
 362:Core/Src/main.c ****   {
 492              		.loc 1 362 3 is_stmt 0 view .LVU110
 493 0044 022B     		cmp	r3, #2
 494 0046 37D0     		beq	.L53
 495 0048 16D8     		bhi	.L54
 496 004a 5BB3     		cbz	r3, .L55
ARM GAS  /var/folders/t9/y_chwk8j4cv2jjx6x9_h4twc0000gn/T//ccKX2YF8.s 			page 21


 497 004c 012B     		cmp	r3, #1
 498 004e 2DD1     		bne	.L50
 370:Core/Src/main.c ****       g_app.profiles = Profil_GetResult();
 499              		.loc 1 370 7 is_stmt 1 view .LVU111
 500 0050 FFF7FEFF 		bl	Profil_CalculateAll
 501              	.LVL48:
 371:Core/Src/main.c ****       if ((g_app.profiles != NULL) && g_app.profiles->ready && g_app.profiles->valid)
 502              		.loc 1 371 7 view .LVU112
 371:Core/Src/main.c ****       if ((g_app.profiles != NULL) && g_app.profiles->ready && g_app.profiles->valid)
 503              		.loc 1 371 24 is_stmt 0 view .LVU113
 504 0054 FFF7FEFF 		bl	Profil_GetResult
 505              	.LVL49:
 371:Core/Src/main.c ****       if ((g_app.profiles != NULL) && g_app.profiles->ready && g_app.profiles->valid)
 506              		.loc 1 371 22 discriminator 1 view .LVU114
 507 0058 444B     		ldr	r3, .L71
 508 005a 9860     		str	r0, [r3, #8]
 372:Core/Src/main.c ****       {
 509              		.loc 1 372 7 is_stmt 1 view .LVU115
 372:Core/Src/main.c ****       {
 510              		.loc 1 372 10 is_stmt 0 view .LVU116
 511 005c 18B1     		cbz	r0, .L64
 372:Core/Src/main.c ****       {
 512              		.loc 1 372 53 discriminator 1 view .LVU117
 513 005e 0378     		ldrb	r3, [r0]	@ zero_extendqisi2
 372:Core/Src/main.c ****       {
 514              		.loc 1 372 36 discriminator 1 view .LVU118
 515 0060 0BB1     		cbz	r3, .L64
 372:Core/Src/main.c ****       {
 516              		.loc 1 372 78 discriminator 2 view .LVU119
 517 0062 4378     		ldrb	r3, [r0, #1]	@ zero_extendqisi2
 372:Core/Src/main.c ****       {
 518              		.loc 1 372 61 discriminator 2 view .LVU120
 519 0064 1BBB     		cbnz	r3, .L69
 520              	.L64:
 378:Core/Src/main.c ****         AFLC_AppEnterState(AFLC_APP_SAFE_STATE, now_ms);
 521              		.loc 1 378 9 is_stmt 1 view .LVU121
 378:Core/Src/main.c ****         AFLC_AppEnterState(AFLC_APP_SAFE_STATE, now_ms);
 522              		.loc 1 378 33 is_stmt 0 view .LVU122
 523 0066 414B     		ldr	r3, .L71
 524 0068 0F22     		movs	r2, #15
 525 006a 83F83120 		strb	r2, [r3, #49]
 379:Core/Src/main.c ****       }
 526              		.loc 1 379 9 is_stmt 1 view .LVU123
 527 006e 2946     		mov	r1, r5
 528 0070 0820     		movs	r0, #8
 529 0072 FFF7FEFF 		bl	AFLC_AppEnterState
 530              	.LVL50:
 531 0076 19E0     		b	.L50
 532              	.LVL51:
 533              	.L54:
 362:Core/Src/main.c ****   {
 534              		.loc 1 362 3 is_stmt 0 view .LVU124
 535 0078 032B     		cmp	r3, #3
 536 007a 17D1     		bne	.L50
 393:Core/Src/main.c ****       {
 537              		.loc 1 393 7 is_stmt 1 view .LVU125
 393:Core/Src/main.c ****       {
ARM GAS  /var/folders/t9/y_chwk8j4cv2jjx6x9_h4twc0000gn/T//ccKX2YF8.s 			page 22


 538              		.loc 1 393 11 is_stmt 0 view .LVU126
 539 007c FFF7FEFF 		bl	Button_IsConfirmPressed
 540              	.LVL52:
 393:Core/Src/main.c ****       {
 541              		.loc 1 393 10 discriminator 1 view .LVU127
 542 0080 A0B1     		cbz	r0, .L50
 395:Core/Src/main.c ****         AFLC_AppEnterState(AFLC_APP_STARTUP_TEST_INIT, now_ms);
 543              		.loc 1 395 9 is_stmt 1 view .LVU128
 544 0082 FFF7FEFF 		bl	Button_ClearConfirm
 545              	.LVL53:
 396:Core/Src/main.c ****       }
 546              		.loc 1 396 9 view .LVU129
 547 0086 2946     		mov	r1, r5
 548 0088 0420     		movs	r0, #4
 549 008a FFF7FEFF 		bl	AFLC_AppEnterState
 550              	.LVL54:
 551 008e 0DE0     		b	.L50
 552              	.LVL55:
 553              	.L60:
 362:Core/Src/main.c ****   {
 554              		.loc 1 362 3 is_stmt 0 view .LVU130
 555 0090 082B     		cmp	r3, #8
 556 0092 0BD1     		bne	.L50
 448:Core/Src/main.c ****       UI_LCD_ShowSafeState(g_app.startup_fail_mask);
 557              		.loc 1 448 7 is_stmt 1 view .LVU131
 558 0094 FFF7FEFF 		bl	FanControl_EnterSafeState
 559              	.LVL56:
 449:Core/Src/main.c ****       break;
 560              		.loc 1 449 7 view .LVU132
 561 0098 344B     		ldr	r3, .L71
 562 009a 93F83100 		ldrb	r0, [r3, #49]	@ zero_extendqisi2
 563 009e FFF7FEFF 		bl	UI_LCD_ShowSafeState
 564              	.LVL57:
 450:Core/Src/main.c **** 
 565              		.loc 1 450 7 view .LVU133
 455:Core/Src/main.c **** 
 566              		.loc 1 455 1 is_stmt 0 view .LVU134
 567 00a2 03E0     		b	.L50
 568              	.LVL58:
 569              	.L55:
 365:Core/Src/main.c ****       break;
 570              		.loc 1 365 7 is_stmt 1 view .LVU135
 571 00a4 0146     		mov	r1, r0
 572 00a6 0120     		movs	r0, #1
 573              	.LVL59:
 365:Core/Src/main.c ****       break;
 574              		.loc 1 365 7 is_stmt 0 view .LVU136
 575 00a8 FFF7FEFF 		bl	AFLC_AppEnterState
 576              	.LVL60:
 366:Core/Src/main.c **** 
 577              		.loc 1 366 7 is_stmt 1 view .LVU137
 578              	.L50:
 455:Core/Src/main.c **** 
 579              		.loc 1 455 1 is_stmt 0 view .LVU138
 580 00ac 70BD     		pop	{r4, r5, r6, pc}
 581              	.LVL61:
 582              	.L69:
ARM GAS  /var/folders/t9/y_chwk8j4cv2jjx6x9_h4twc0000gn/T//ccKX2YF8.s 			page 23


 374:Core/Src/main.c ****       }
 583              		.loc 1 374 9 is_stmt 1 view .LVU139
 584 00ae 2946     		mov	r1, r5
 585 00b0 0220     		movs	r0, #2
 586 00b2 FFF7FEFF 		bl	AFLC_AppEnterState
 587              	.LVL62:
 588 00b6 F9E7     		b	.L50
 589              	.LVL63:
 590              	.L53:
 385:Core/Src/main.c ****       {
 591              		.loc 1 385 7 view .LVU140
 385:Core/Src/main.c ****       {
 592              		.loc 1 385 26 is_stmt 0 view .LVU141
 593 00b8 2C4B     		ldr	r3, .L71
 594 00ba 5B68     		ldr	r3, [r3, #4]
 385:Core/Src/main.c ****       {
 595              		.loc 1 385 19 view .LVU142
 596 00bc C31A     		subs	r3, r0, r3
 385:Core/Src/main.c ****       {
 597              		.loc 1 385 10 view .LVU143
 598 00be 40F2DB52 		movw	r2, #1499
 599 00c2 9342     		cmp	r3, r2
 600 00c4 F2D9     		bls	.L50
 387:Core/Src/main.c ****       }
 601              		.loc 1 387 9 is_stmt 1 view .LVU144
 602 00c6 0146     		mov	r1, r0
 603 00c8 0320     		movs	r0, #3
 604              	.LVL64:
 387:Core/Src/main.c ****       }
 605              		.loc 1 387 9 is_stmt 0 view .LVU145
 606 00ca FFF7FEFF 		bl	AFLC_AppEnterState
 607              	.LVL65:
 608 00ce EDE7     		b	.L50
 609              	.LVL66:
 610              	.L51:
 402:Core/Src/main.c ****       g_app.startup_fail_mask = 0U;
 611              		.loc 1 402 7 is_stmt 1 view .LVU146
 402:Core/Src/main.c ****       g_app.startup_fail_mask = 0U;
 612              		.loc 1 402 33 is_stmt 0 view .LVU147
 613 00d0 264B     		ldr	r3, .L71
 614 00d2 4FF00002 		mov	r2, #0
 615 00d6 83F83020 		strb	r2, [r3, #48]
 403:Core/Src/main.c ****       FanControl_SetDutyPermilleAll(STARTUP_TEST_DUTY_PERMILLE);
 616              		.loc 1 403 7 is_stmt 1 view .LVU148
 403:Core/Src/main.c ****       FanControl_SetDutyPermilleAll(STARTUP_TEST_DUTY_PERMILLE);
 617              		.loc 1 403 31 is_stmt 0 view .LVU149
 618 00da 1C46     		mov	r4, r3
 619 00dc 83F83120 		strb	r2, [r3, #49]
 404:Core/Src/main.c ****       UI_LCD_ShowStartupTest(g_app.startup_passed_mask, g_app.startup_fail_mask, 0U);
 620              		.loc 1 404 7 is_stmt 1 view .LVU150
 621 00e0 FA20     		movs	r0, #250
 622              	.LVL67:
 404:Core/Src/main.c ****       UI_LCD_ShowStartupTest(g_app.startup_passed_mask, g_app.startup_fail_mask, 0U);
 623              		.loc 1 404 7 is_stmt 0 view .LVU151
 624 00e2 FFF7FEFF 		bl	FanControl_SetDutyPermilleAll
 625              	.LVL68:
 405:Core/Src/main.c ****       AFLC_AppEnterState(AFLC_APP_STARTUP_TEST_RUN, now_ms);
ARM GAS  /var/folders/t9/y_chwk8j4cv2jjx6x9_h4twc0000gn/T//ccKX2YF8.s 			page 24


 626              		.loc 1 405 7 is_stmt 1 view .LVU152
 627 00e6 0022     		movs	r2, #0
 628 00e8 94F83110 		ldrb	r1, [r4, #49]	@ zero_extendqisi2
 629 00ec 94F83000 		ldrb	r0, [r4, #48]	@ zero_extendqisi2
 630 00f0 FFF7FEFF 		bl	UI_LCD_ShowStartupTest
 631              	.LVL69:
 406:Core/Src/main.c ****       break;
 632              		.loc 1 406 7 view .LVU153
 633 00f4 2946     		mov	r1, r5
 634 00f6 0520     		movs	r0, #5
 635 00f8 FFF7FEFF 		bl	AFLC_AppEnterState
 636              	.LVL70:
 407:Core/Src/main.c **** 
 637              		.loc 1 407 7 view .LVU154
 638 00fc D6E7     		b	.L50
 639              	.LVL71:
 640              	.L61:
 411:Core/Src/main.c ****       UI_LCD_ShowStartupTest(g_app.startup_passed_mask, 0U, 0U);
 641              		.loc 1 411 7 view .LVU155
 642 00fe FFF7FEFF 		bl	AFLC_UpdateStartupPassMask
 643              	.LVL72:
 412:Core/Src/main.c **** 
 644              		.loc 1 412 7 view .LVU156
 645 0102 0022     		movs	r2, #0
 646 0104 1146     		mov	r1, r2
 647 0106 194B     		ldr	r3, .L71
 648 0108 1C46     		mov	r4, r3
 649 010a 93F83000 		ldrb	r0, [r3, #48]	@ zero_extendqisi2
 650 010e FFF7FEFF 		bl	UI_LCD_ShowStartupTest
 651              	.LVL73:
 414:Core/Src/main.c ****       {
 652              		.loc 1 414 7 view .LVU157
 414:Core/Src/main.c ****       {
 653              		.loc 1 414 16 is_stmt 0 view .LVU158
 654 0112 94F83030 		ldrb	r3, [r4, #48]	@ zero_extendqisi2
 414:Core/Src/main.c ****       {
 655              		.loc 1 414 10 view .LVU159
 656 0116 0F2B     		cmp	r3, #15
 657 0118 11D0     		beq	.L70
 418:Core/Src/main.c ****       {
 658              		.loc 1 418 12 is_stmt 1 view .LVU160
 418:Core/Src/main.c ****       {
 659              		.loc 1 418 31 is_stmt 0 view .LVU161
 660 011a 144A     		ldr	r2, .L71
 661 011c 5268     		ldr	r2, [r2, #4]
 418:Core/Src/main.c ****       {
 662              		.loc 1 418 24 view .LVU162
 663 011e AA1A     		subs	r2, r5, r2
 418:Core/Src/main.c ****       {
 664              		.loc 1 418 15 view .LVU163
 665 0120 40F6B731 		movw	r1, #2999
 666 0124 8A42     		cmp	r2, r1
 667 0126 C1D9     		bls	.L50
 420:Core/Src/main.c ****         AFLC_AppEnterState(AFLC_APP_STARTUP_TEST_EVAL, now_ms);
 668              		.loc 1 420 9 is_stmt 1 view .LVU164
 420:Core/Src/main.c ****         AFLC_AppEnterState(AFLC_APP_STARTUP_TEST_EVAL, now_ms);
 669              		.loc 1 420 35 is_stmt 0 view .LVU165
ARM GAS  /var/folders/t9/y_chwk8j4cv2jjx6x9_h4twc0000gn/T//ccKX2YF8.s 			page 25


 670 0128 DB43     		mvns	r3, r3
 671 012a 03F00F03 		and	r3, r3, #15
 420:Core/Src/main.c ****         AFLC_AppEnterState(AFLC_APP_STARTUP_TEST_EVAL, now_ms);
 672              		.loc 1 420 33 view .LVU166
 673 012e 0F4A     		ldr	r2, .L71
 674 0130 82F83130 		strb	r3, [r2, #49]
 421:Core/Src/main.c ****       }
 675              		.loc 1 421 9 is_stmt 1 view .LVU167
 676 0134 2946     		mov	r1, r5
 677 0136 0620     		movs	r0, #6
 678 0138 FFF7FEFF 		bl	AFLC_AppEnterState
 679              	.LVL74:
 680 013c B6E7     		b	.L50
 681              	.L70:
 416:Core/Src/main.c ****       }
 682              		.loc 1 416 9 view .LVU168
 683 013e 2946     		mov	r1, r5
 684 0140 0620     		movs	r0, #6
 685 0142 FFF7FEFF 		bl	AFLC_AppEnterState
 686              	.LVL75:
 687 0146 B1E7     		b	.L50
 688              	.L66:
 434:Core/Src/main.c ****       }
 689              		.loc 1 434 9 view .LVU169
 690 0148 2946     		mov	r1, r5
 691 014a 0820     		movs	r0, #8
 692 014c FFF7FEFF 		bl	AFLC_AppEnterState
 693              	.LVL76:
 694 0150 ACE7     		b	.L50
 695              	.LVL77:
 696              	.L59:
 440:Core/Src/main.c ****                          g_app.temperatures,
 697              		.loc 1 440 7 view .LVU170
 698 0152 064C     		ldr	r4, .L71
 699 0154 A568     		ldr	r5, [r4, #8]
 700 0156 E66A     		ldr	r6, [r4, #44]
 701 0158 FFF7FEFF 		bl	FanControl_GetStatuses
 702              	.LVL78:
 440:Core/Src/main.c ****                          g_app.temperatures,
 703              		.loc 1 440 7 is_stmt 0 view .LVU171
 704 015c 0346     		mov	r3, r0
 440:Core/Src/main.c ****                          g_app.temperatures,
 705              		.loc 1 440 7 discriminator 1 view .LVU172
 706 015e 04F12402 		add	r2, r4, #36
 707 0162 3146     		mov	r1, r6
 708 0164 2846     		mov	r0, r5
 709 0166 FFF7FEFF 		bl	UI_LCD_ShowRuntime
 710              	.LVL79:
 444:Core/Src/main.c **** 
 711              		.loc 1 444 7 is_stmt 1 view .LVU173
 712 016a 9FE7     		b	.L50
 713              	.L72:
 714              		.align	2
 715              	.L71:
 716 016c 00000000 		.word	g_app
 717              		.cfi_endproc
 718              	.LFE70:
ARM GAS  /var/folders/t9/y_chwk8j4cv2jjx6x9_h4twc0000gn/T//ccKX2YF8.s 			page 26


 720              		.section	.text.HAL_TIM_IC_CaptureCallback,"ax",%progbits
 721              		.align	1
 722              		.global	HAL_TIM_IC_CaptureCallback
 723              		.syntax unified
 724              		.thumb
 725              		.thumb_func
 727              	HAL_TIM_IC_CaptureCallback:
 728              	.LVL80:
 729              	.LFB68:
 312:Core/Src/main.c ****   Tachometer_OnCapture(htim);
 730              		.loc 1 312 1 view -0
 731              		.cfi_startproc
 732              		@ args = 0, pretend = 0, frame = 0
 733              		@ frame_needed = 0, uses_anonymous_args = 0
 312:Core/Src/main.c ****   Tachometer_OnCapture(htim);
 734              		.loc 1 312 1 is_stmt 0 view .LVU175
 735 0000 08B5     		push	{r3, lr}
 736              	.LCFI9:
 737              		.cfi_def_cfa_offset 8
 738              		.cfi_offset 3, -8
 739              		.cfi_offset 14, -4
 313:Core/Src/main.c **** }
 740              		.loc 1 313 3 is_stmt 1 view .LVU176
 741 0002 FFF7FEFF 		bl	Tachometer_OnCapture
 742              	.LVL81:
 314:Core/Src/main.c **** 
 743              		.loc 1 314 1 is_stmt 0 view .LVU177
 744 0006 08BD     		pop	{r3, pc}
 745              		.cfi_endproc
 746              	.LFE68:
 748              		.section	.text.Error_Handler,"ax",%progbits
 749              		.align	1
 750              		.global	Error_Handler
 751              		.syntax unified
 752              		.thumb
 753              		.thumb_func
 755              	Error_Handler:
 756              	.LFB75:
 557:Core/Src/main.c **** /* USER CODE END 4 */
 558:Core/Src/main.c **** 
 559:Core/Src/main.c **** /**
 560:Core/Src/main.c ****   * @brief  This function is executed in case of error occurrence.
 561:Core/Src/main.c ****   * @retval None
 562:Core/Src/main.c ****   */
 563:Core/Src/main.c **** void Error_Handler(void)
 564:Core/Src/main.c **** {
 757              		.loc 1 564 1 is_stmt 1 view -0
 758              		.cfi_startproc
 759              		@ Volatile: function does not return.
 760              		@ args = 0, pretend = 0, frame = 0
 761              		@ frame_needed = 0, uses_anonymous_args = 0
 762              		@ link register save eliminated.
 565:Core/Src/main.c ****   /* USER CODE BEGIN Error_Handler_Debug */
 566:Core/Src/main.c ****   __disable_irq();
 763              		.loc 1 566 3 view .LVU179
 764              	.LBB4:
 765              	.LBI4:
ARM GAS  /var/folders/t9/y_chwk8j4cv2jjx6x9_h4twc0000gn/T//ccKX2YF8.s 			page 27


 766              		.file 2 "Drivers/CMSIS/Include/cmsis_gcc.h"
   1:Drivers/CMSIS/Include/cmsis_gcc.h **** /**************************************************************************//**
   2:Drivers/CMSIS/Include/cmsis_gcc.h ****  * @file     cmsis_gcc.h
   3:Drivers/CMSIS/Include/cmsis_gcc.h ****  * @brief    CMSIS compiler GCC header file
   4:Drivers/CMSIS/Include/cmsis_gcc.h ****  * @version  V5.0.4
   5:Drivers/CMSIS/Include/cmsis_gcc.h ****  * @date     09. April 2018
   6:Drivers/CMSIS/Include/cmsis_gcc.h ****  ******************************************************************************/
   7:Drivers/CMSIS/Include/cmsis_gcc.h **** /*
   8:Drivers/CMSIS/Include/cmsis_gcc.h ****  * Copyright (c) 2009-2018 Arm Limited. All rights reserved.
   9:Drivers/CMSIS/Include/cmsis_gcc.h ****  *
  10:Drivers/CMSIS/Include/cmsis_gcc.h ****  * SPDX-License-Identifier: Apache-2.0
  11:Drivers/CMSIS/Include/cmsis_gcc.h ****  *
  12:Drivers/CMSIS/Include/cmsis_gcc.h ****  * Licensed under the Apache License, Version 2.0 (the License); you may
  13:Drivers/CMSIS/Include/cmsis_gcc.h ****  * not use this file except in compliance with the License.
  14:Drivers/CMSIS/Include/cmsis_gcc.h ****  * You may obtain a copy of the License at
  15:Drivers/CMSIS/Include/cmsis_gcc.h ****  *
  16:Drivers/CMSIS/Include/cmsis_gcc.h ****  * www.apache.org/licenses/LICENSE-2.0
  17:Drivers/CMSIS/Include/cmsis_gcc.h ****  *
  18:Drivers/CMSIS/Include/cmsis_gcc.h ****  * Unless required by applicable law or agreed to in writing, software
  19:Drivers/CMSIS/Include/cmsis_gcc.h ****  * distributed under the License is distributed on an AS IS BASIS, WITHOUT
  20:Drivers/CMSIS/Include/cmsis_gcc.h ****  * WARRANTIES OR CONDITIONS OF ANY KIND, either express or implied.
  21:Drivers/CMSIS/Include/cmsis_gcc.h ****  * See the License for the specific language governing permissions and
  22:Drivers/CMSIS/Include/cmsis_gcc.h ****  * limitations under the License.
  23:Drivers/CMSIS/Include/cmsis_gcc.h ****  */
  24:Drivers/CMSIS/Include/cmsis_gcc.h **** 
  25:Drivers/CMSIS/Include/cmsis_gcc.h **** #ifndef __CMSIS_GCC_H
  26:Drivers/CMSIS/Include/cmsis_gcc.h **** #define __CMSIS_GCC_H
  27:Drivers/CMSIS/Include/cmsis_gcc.h **** 
  28:Drivers/CMSIS/Include/cmsis_gcc.h **** /* ignore some GCC warnings */
  29:Drivers/CMSIS/Include/cmsis_gcc.h **** #pragma GCC diagnostic push
  30:Drivers/CMSIS/Include/cmsis_gcc.h **** #pragma GCC diagnostic ignored "-Wsign-conversion"
  31:Drivers/CMSIS/Include/cmsis_gcc.h **** #pragma GCC diagnostic ignored "-Wconversion"
  32:Drivers/CMSIS/Include/cmsis_gcc.h **** #pragma GCC diagnostic ignored "-Wunused-parameter"
  33:Drivers/CMSIS/Include/cmsis_gcc.h **** 
  34:Drivers/CMSIS/Include/cmsis_gcc.h **** /* Fallback for __has_builtin */
  35:Drivers/CMSIS/Include/cmsis_gcc.h **** #ifndef __has_builtin
  36:Drivers/CMSIS/Include/cmsis_gcc.h ****   #define __has_builtin(x) (0)
  37:Drivers/CMSIS/Include/cmsis_gcc.h **** #endif
  38:Drivers/CMSIS/Include/cmsis_gcc.h **** 
  39:Drivers/CMSIS/Include/cmsis_gcc.h **** /* CMSIS compiler specific defines */
  40:Drivers/CMSIS/Include/cmsis_gcc.h **** #ifndef   __ASM
  41:Drivers/CMSIS/Include/cmsis_gcc.h ****   #define __ASM                                  __asm
  42:Drivers/CMSIS/Include/cmsis_gcc.h **** #endif
  43:Drivers/CMSIS/Include/cmsis_gcc.h **** #ifndef   __INLINE
  44:Drivers/CMSIS/Include/cmsis_gcc.h ****   #define __INLINE                               inline
  45:Drivers/CMSIS/Include/cmsis_gcc.h **** #endif
  46:Drivers/CMSIS/Include/cmsis_gcc.h **** #ifndef   __STATIC_INLINE
  47:Drivers/CMSIS/Include/cmsis_gcc.h ****   #define __STATIC_INLINE                        static inline
  48:Drivers/CMSIS/Include/cmsis_gcc.h **** #endif
  49:Drivers/CMSIS/Include/cmsis_gcc.h **** #ifndef   __STATIC_FORCEINLINE                 
  50:Drivers/CMSIS/Include/cmsis_gcc.h ****   #define __STATIC_FORCEINLINE                   __attribute__((always_inline)) static inline
  51:Drivers/CMSIS/Include/cmsis_gcc.h **** #endif                                           
  52:Drivers/CMSIS/Include/cmsis_gcc.h **** #ifndef   __NO_RETURN
  53:Drivers/CMSIS/Include/cmsis_gcc.h ****   #define __NO_RETURN                            __attribute__((__noreturn__))
  54:Drivers/CMSIS/Include/cmsis_gcc.h **** #endif
  55:Drivers/CMSIS/Include/cmsis_gcc.h **** #ifndef   __USED
  56:Drivers/CMSIS/Include/cmsis_gcc.h ****   #define __USED                                 __attribute__((used))
ARM GAS  /var/folders/t9/y_chwk8j4cv2jjx6x9_h4twc0000gn/T//ccKX2YF8.s 			page 28


  57:Drivers/CMSIS/Include/cmsis_gcc.h **** #endif
  58:Drivers/CMSIS/Include/cmsis_gcc.h **** #ifndef   __WEAK
  59:Drivers/CMSIS/Include/cmsis_gcc.h ****   #define __WEAK                                 __attribute__((weak))
  60:Drivers/CMSIS/Include/cmsis_gcc.h **** #endif
  61:Drivers/CMSIS/Include/cmsis_gcc.h **** #ifndef   __PACKED
  62:Drivers/CMSIS/Include/cmsis_gcc.h ****   #define __PACKED                               __attribute__((packed, aligned(1)))
  63:Drivers/CMSIS/Include/cmsis_gcc.h **** #endif
  64:Drivers/CMSIS/Include/cmsis_gcc.h **** #ifndef   __PACKED_STRUCT
  65:Drivers/CMSIS/Include/cmsis_gcc.h ****   #define __PACKED_STRUCT                        struct __attribute__((packed, aligned(1)))
  66:Drivers/CMSIS/Include/cmsis_gcc.h **** #endif
  67:Drivers/CMSIS/Include/cmsis_gcc.h **** #ifndef   __PACKED_UNION
  68:Drivers/CMSIS/Include/cmsis_gcc.h ****   #define __PACKED_UNION                         union __attribute__((packed, aligned(1)))
  69:Drivers/CMSIS/Include/cmsis_gcc.h **** #endif
  70:Drivers/CMSIS/Include/cmsis_gcc.h **** #ifndef   __UNALIGNED_UINT32        /* deprecated */
  71:Drivers/CMSIS/Include/cmsis_gcc.h ****   #pragma GCC diagnostic push
  72:Drivers/CMSIS/Include/cmsis_gcc.h ****   #pragma GCC diagnostic ignored "-Wpacked"
  73:Drivers/CMSIS/Include/cmsis_gcc.h ****   #pragma GCC diagnostic ignored "-Wattributes"
  74:Drivers/CMSIS/Include/cmsis_gcc.h ****   struct __attribute__((packed)) T_UINT32 { uint32_t v; };
  75:Drivers/CMSIS/Include/cmsis_gcc.h ****   #pragma GCC diagnostic pop
  76:Drivers/CMSIS/Include/cmsis_gcc.h ****   #define __UNALIGNED_UINT32(x)                  (((struct T_UINT32 *)(x))->v)
  77:Drivers/CMSIS/Include/cmsis_gcc.h **** #endif
  78:Drivers/CMSIS/Include/cmsis_gcc.h **** #ifndef   __UNALIGNED_UINT16_WRITE
  79:Drivers/CMSIS/Include/cmsis_gcc.h ****   #pragma GCC diagnostic push
  80:Drivers/CMSIS/Include/cmsis_gcc.h ****   #pragma GCC diagnostic ignored "-Wpacked"
  81:Drivers/CMSIS/Include/cmsis_gcc.h ****   #pragma GCC diagnostic ignored "-Wattributes"
  82:Drivers/CMSIS/Include/cmsis_gcc.h ****   __PACKED_STRUCT T_UINT16_WRITE { uint16_t v; };
  83:Drivers/CMSIS/Include/cmsis_gcc.h ****   #pragma GCC diagnostic pop
  84:Drivers/CMSIS/Include/cmsis_gcc.h ****   #define __UNALIGNED_UINT16_WRITE(addr, val)    (void)((((struct T_UINT16_WRITE *)(void *)(addr))-
  85:Drivers/CMSIS/Include/cmsis_gcc.h **** #endif
  86:Drivers/CMSIS/Include/cmsis_gcc.h **** #ifndef   __UNALIGNED_UINT16_READ
  87:Drivers/CMSIS/Include/cmsis_gcc.h ****   #pragma GCC diagnostic push
  88:Drivers/CMSIS/Include/cmsis_gcc.h ****   #pragma GCC diagnostic ignored "-Wpacked"
  89:Drivers/CMSIS/Include/cmsis_gcc.h ****   #pragma GCC diagnostic ignored "-Wattributes"
  90:Drivers/CMSIS/Include/cmsis_gcc.h ****   __PACKED_STRUCT T_UINT16_READ { uint16_t v; };
  91:Drivers/CMSIS/Include/cmsis_gcc.h ****   #pragma GCC diagnostic pop
  92:Drivers/CMSIS/Include/cmsis_gcc.h ****   #define __UNALIGNED_UINT16_READ(addr)          (((const struct T_UINT16_READ *)(const void *)(add
  93:Drivers/CMSIS/Include/cmsis_gcc.h **** #endif
  94:Drivers/CMSIS/Include/cmsis_gcc.h **** #ifndef   __UNALIGNED_UINT32_WRITE
  95:Drivers/CMSIS/Include/cmsis_gcc.h ****   #pragma GCC diagnostic push
  96:Drivers/CMSIS/Include/cmsis_gcc.h ****   #pragma GCC diagnostic ignored "-Wpacked"
  97:Drivers/CMSIS/Include/cmsis_gcc.h ****   #pragma GCC diagnostic ignored "-Wattributes"
  98:Drivers/CMSIS/Include/cmsis_gcc.h ****   __PACKED_STRUCT T_UINT32_WRITE { uint32_t v; };
  99:Drivers/CMSIS/Include/cmsis_gcc.h ****   #pragma GCC diagnostic pop
 100:Drivers/CMSIS/Include/cmsis_gcc.h ****   #define __UNALIGNED_UINT32_WRITE(addr, val)    (void)((((struct T_UINT32_WRITE *)(void *)(addr))-
 101:Drivers/CMSIS/Include/cmsis_gcc.h **** #endif
 102:Drivers/CMSIS/Include/cmsis_gcc.h **** #ifndef   __UNALIGNED_UINT32_READ
 103:Drivers/CMSIS/Include/cmsis_gcc.h ****   #pragma GCC diagnostic push
 104:Drivers/CMSIS/Include/cmsis_gcc.h ****   #pragma GCC diagnostic ignored "-Wpacked"
 105:Drivers/CMSIS/Include/cmsis_gcc.h ****   #pragma GCC diagnostic ignored "-Wattributes"
 106:Drivers/CMSIS/Include/cmsis_gcc.h ****   __PACKED_STRUCT T_UINT32_READ { uint32_t v; };
 107:Drivers/CMSIS/Include/cmsis_gcc.h ****   #pragma GCC diagnostic pop
 108:Drivers/CMSIS/Include/cmsis_gcc.h ****   #define __UNALIGNED_UINT32_READ(addr)          (((const struct T_UINT32_READ *)(const void *)(add
 109:Drivers/CMSIS/Include/cmsis_gcc.h **** #endif
 110:Drivers/CMSIS/Include/cmsis_gcc.h **** #ifndef   __ALIGNED
 111:Drivers/CMSIS/Include/cmsis_gcc.h ****   #define __ALIGNED(x)                           __attribute__((aligned(x)))
 112:Drivers/CMSIS/Include/cmsis_gcc.h **** #endif
 113:Drivers/CMSIS/Include/cmsis_gcc.h **** #ifndef   __RESTRICT
ARM GAS  /var/folders/t9/y_chwk8j4cv2jjx6x9_h4twc0000gn/T//ccKX2YF8.s 			page 29


 114:Drivers/CMSIS/Include/cmsis_gcc.h ****   #define __RESTRICT                             __restrict
 115:Drivers/CMSIS/Include/cmsis_gcc.h **** #endif
 116:Drivers/CMSIS/Include/cmsis_gcc.h **** 
 117:Drivers/CMSIS/Include/cmsis_gcc.h **** 
 118:Drivers/CMSIS/Include/cmsis_gcc.h **** /* ###########################  Core Function Access  ########################### */
 119:Drivers/CMSIS/Include/cmsis_gcc.h **** /** \ingroup  CMSIS_Core_FunctionInterface
 120:Drivers/CMSIS/Include/cmsis_gcc.h ****     \defgroup CMSIS_Core_RegAccFunctions CMSIS Core Register Access Functions
 121:Drivers/CMSIS/Include/cmsis_gcc.h ****   @{
 122:Drivers/CMSIS/Include/cmsis_gcc.h ****  */
 123:Drivers/CMSIS/Include/cmsis_gcc.h **** 
 124:Drivers/CMSIS/Include/cmsis_gcc.h **** /**
 125:Drivers/CMSIS/Include/cmsis_gcc.h ****   \brief   Enable IRQ Interrupts
 126:Drivers/CMSIS/Include/cmsis_gcc.h ****   \details Enables IRQ interrupts by clearing the I-bit in the CPSR.
 127:Drivers/CMSIS/Include/cmsis_gcc.h ****            Can only be executed in Privileged modes.
 128:Drivers/CMSIS/Include/cmsis_gcc.h ****  */
 129:Drivers/CMSIS/Include/cmsis_gcc.h **** __STATIC_FORCEINLINE void __enable_irq(void)
 130:Drivers/CMSIS/Include/cmsis_gcc.h **** {
 131:Drivers/CMSIS/Include/cmsis_gcc.h ****   __ASM volatile ("cpsie i" : : : "memory");
 132:Drivers/CMSIS/Include/cmsis_gcc.h **** }
 133:Drivers/CMSIS/Include/cmsis_gcc.h **** 
 134:Drivers/CMSIS/Include/cmsis_gcc.h **** 
 135:Drivers/CMSIS/Include/cmsis_gcc.h **** /**
 136:Drivers/CMSIS/Include/cmsis_gcc.h ****   \brief   Disable IRQ Interrupts
 137:Drivers/CMSIS/Include/cmsis_gcc.h ****   \details Disables IRQ interrupts by setting the I-bit in the CPSR.
 138:Drivers/CMSIS/Include/cmsis_gcc.h ****            Can only be executed in Privileged modes.
 139:Drivers/CMSIS/Include/cmsis_gcc.h ****  */
 140:Drivers/CMSIS/Include/cmsis_gcc.h **** __STATIC_FORCEINLINE void __disable_irq(void)
 767              		.loc 2 140 27 view .LVU180
 768              	.LBB5:
 141:Drivers/CMSIS/Include/cmsis_gcc.h **** {
 142:Drivers/CMSIS/Include/cmsis_gcc.h ****   __ASM volatile ("cpsid i" : : : "memory");
 769              		.loc 2 142 3 view .LVU181
 770              		.syntax unified
 771              	@ 142 "Drivers/CMSIS/Include/cmsis_gcc.h" 1
 772 0000 72B6     		cpsid i
 773              	@ 0 "" 2
 774              		.thumb
 775              		.syntax unified
 776              	.L76:
 777              	.LBE5:
 778              	.LBE4:
 567:Core/Src/main.c ****   while (1)
 779              		.loc 1 567 3 view .LVU182
 568:Core/Src/main.c ****   {
 569:Core/Src/main.c ****   }
 780              		.loc 1 569 3 view .LVU183
 567:Core/Src/main.c ****   while (1)
 781              		.loc 1 567 9 view .LVU184
 782 0002 FEE7     		b	.L76
 783              		.cfi_endproc
 784              	.LFE75:
 786              		.section	.text.MX_AFLC_StartPeripherals,"ax",%progbits
 787              		.align	1
 788              		.syntax unified
 789              		.thumb
 790              		.thumb_func
 792              	MX_AFLC_StartPeripherals:
ARM GAS  /var/folders/t9/y_chwk8j4cv2jjx6x9_h4twc0000gn/T//ccKX2YF8.s 			page 30


 793              	.LFB69:
 317:Core/Src/main.c ****   // Demarre les blocs deja configures par CubeMX.
 794              		.loc 1 317 1 view -0
 795              		.cfi_startproc
 796              		@ args = 0, pretend = 0, frame = 0
 797              		@ frame_needed = 0, uses_anonymous_args = 0
 798 0000 08B5     		push	{r3, lr}
 799              	.LCFI10:
 800              		.cfi_def_cfa_offset 8
 801              		.cfi_offset 3, -8
 802              		.cfi_offset 14, -4
 321:Core/Src/main.c ****   {
 803              		.loc 1 321 3 view .LVU186
 321:Core/Src/main.c ****   {
 804              		.loc 1 321 7 is_stmt 0 view .LVU187
 805 0002 0021     		movs	r1, #0
 806 0004 1B48     		ldr	r0, .L95
 807 0006 FFF7FEFF 		bl	HAL_TIM_IC_Start_IT
 808              	.LVL82:
 321:Core/Src/main.c ****   {
 809              		.loc 1 321 6 discriminator 1 view .LVU188
 810 000a 18BB     		cbnz	r0, .L87
 325:Core/Src/main.c ****   {
 811              		.loc 1 325 3 is_stmt 1 view .LVU189
 325:Core/Src/main.c ****   {
 812              		.loc 1 325 7 is_stmt 0 view .LVU190
 813 000c 0421     		movs	r1, #4
 814 000e 1948     		ldr	r0, .L95
 815 0010 FFF7FEFF 		bl	HAL_TIM_IC_Start_IT
 816              	.LVL83:
 325:Core/Src/main.c ****   {
 817              		.loc 1 325 6 discriminator 1 view .LVU191
 818 0014 00BB     		cbnz	r0, .L88
 329:Core/Src/main.c ****   {
 819              		.loc 1 329 3 is_stmt 1 view .LVU192
 329:Core/Src/main.c ****   {
 820              		.loc 1 329 7 is_stmt 0 view .LVU193
 821 0016 0821     		movs	r1, #8
 822 0018 1648     		ldr	r0, .L95
 823 001a FFF7FEFF 		bl	HAL_TIM_IC_Start_IT
 824              	.LVL84:
 329:Core/Src/main.c ****   {
 825              		.loc 1 329 6 discriminator 1 view .LVU194
 826 001e E8B9     		cbnz	r0, .L89
 333:Core/Src/main.c ****   {
 827              		.loc 1 333 3 is_stmt 1 view .LVU195
 333:Core/Src/main.c ****   {
 828              		.loc 1 333 7 is_stmt 0 view .LVU196
 829 0020 0C21     		movs	r1, #12
 830 0022 1448     		ldr	r0, .L95
 831 0024 FFF7FEFF 		bl	HAL_TIM_IC_Start_IT
 832              	.LVL85:
 333:Core/Src/main.c ****   {
 833              		.loc 1 333 6 discriminator 1 view .LVU197
 834 0028 D0B9     		cbnz	r0, .L90
 339:Core/Src/main.c ****   {
 835              		.loc 1 339 3 is_stmt 1 view .LVU198
ARM GAS  /var/folders/t9/y_chwk8j4cv2jjx6x9_h4twc0000gn/T//ccKX2YF8.s 			page 31


 339:Core/Src/main.c ****   {
 836              		.loc 1 339 7 is_stmt 0 view .LVU199
 837 002a 0146     		mov	r1, r0
 838 002c 1248     		ldr	r0, .L95+4
 839 002e FFF7FEFF 		bl	HAL_TIM_PWM_Start
 840              	.LVL86:
 339:Core/Src/main.c ****   {
 841              		.loc 1 339 6 discriminator 1 view .LVU200
 842 0032 B8B9     		cbnz	r0, .L91
 343:Core/Src/main.c ****   {
 843              		.loc 1 343 3 is_stmt 1 view .LVU201
 343:Core/Src/main.c ****   {
 844              		.loc 1 343 7 is_stmt 0 view .LVU202
 845 0034 0421     		movs	r1, #4
 846 0036 1048     		ldr	r0, .L95+4
 847 0038 FFF7FEFF 		bl	HAL_TIM_PWM_Start
 848              	.LVL87:
 343:Core/Src/main.c ****   {
 849              		.loc 1 343 6 discriminator 1 view .LVU203
 850 003c A0B9     		cbnz	r0, .L92
 347:Core/Src/main.c ****   {
 851              		.loc 1 347 3 is_stmt 1 view .LVU204
 347:Core/Src/main.c ****   {
 852              		.loc 1 347 7 is_stmt 0 view .LVU205
 853 003e 0821     		movs	r1, #8
 854 0040 0D48     		ldr	r0, .L95+4
 855 0042 FFF7FEFF 		bl	HAL_TIM_PWM_Start
 856              	.LVL88:
 347:Core/Src/main.c ****   {
 857              		.loc 1 347 6 discriminator 1 view .LVU206
 858 0046 88B9     		cbnz	r0, .L93
 351:Core/Src/main.c ****   {
 859              		.loc 1 351 3 is_stmt 1 view .LVU207
 351:Core/Src/main.c ****   {
 860              		.loc 1 351 7 is_stmt 0 view .LVU208
 861 0048 0C21     		movs	r1, #12
 862 004a 0B48     		ldr	r0, .L95+4
 863 004c FFF7FEFF 		bl	HAL_TIM_PWM_Start
 864              	.LVL89:
 351:Core/Src/main.c ****   {
 865              		.loc 1 351 6 discriminator 1 view .LVU209
 866 0050 70B9     		cbnz	r0, .L94
 355:Core/Src/main.c **** 
 867              		.loc 1 355 1 view .LVU210
 868 0052 08BD     		pop	{r3, pc}
 869              	.L87:
 323:Core/Src/main.c ****   }
 870              		.loc 1 323 5 is_stmt 1 view .LVU211
 871 0054 FFF7FEFF 		bl	Error_Handler
 872              	.LVL90:
 873              	.L88:
 327:Core/Src/main.c ****   }
 874              		.loc 1 327 5 view .LVU212
 875 0058 FFF7FEFF 		bl	Error_Handler
 876              	.LVL91:
 877              	.L89:
 331:Core/Src/main.c ****   }
ARM GAS  /var/folders/t9/y_chwk8j4cv2jjx6x9_h4twc0000gn/T//ccKX2YF8.s 			page 32


 878              		.loc 1 331 5 view .LVU213
 879 005c FFF7FEFF 		bl	Error_Handler
 880              	.LVL92:
 881              	.L90:
 335:Core/Src/main.c ****   }
 882              		.loc 1 335 5 view .LVU214
 883 0060 FFF7FEFF 		bl	Error_Handler
 884              	.LVL93:
 885              	.L91:
 341:Core/Src/main.c ****   }
 886              		.loc 1 341 5 view .LVU215
 887 0064 FFF7FEFF 		bl	Error_Handler
 888              	.LVL94:
 889              	.L92:
 345:Core/Src/main.c ****   }
 890              		.loc 1 345 5 view .LVU216
 891 0068 FFF7FEFF 		bl	Error_Handler
 892              	.LVL95:
 893              	.L93:
 349:Core/Src/main.c ****   }
 894              		.loc 1 349 5 view .LVU217
 895 006c FFF7FEFF 		bl	Error_Handler
 896              	.LVL96:
 897              	.L94:
 353:Core/Src/main.c ****   }
 898              		.loc 1 353 5 view .LVU218
 899 0070 FFF7FEFF 		bl	Error_Handler
 900              	.LVL97:
 901              	.L96:
 902              		.align	2
 903              	.L95:
 904 0074 00000000 		.word	htim2
 905 0078 00000000 		.word	htim3
 906              		.cfi_endproc
 907              	.LFE69:
 909              		.section	.text.SystemClock_Config,"ax",%progbits
 910              		.align	1
 911              		.global	SystemClock_Config
 912              		.syntax unified
 913              		.thumb
 914              		.thumb_func
 916              	SystemClock_Config:
 917              	.LFB67:
 279:Core/Src/main.c ****   RCC_OscInitTypeDef RCC_OscInitStruct = {0};
 918              		.loc 1 279 1 view -0
 919              		.cfi_startproc
 920              		@ args = 0, pretend = 0, frame = 64
 921              		@ frame_needed = 0, uses_anonymous_args = 0
 922 0000 10B5     		push	{r4, lr}
 923              	.LCFI11:
 924              		.cfi_def_cfa_offset 8
 925              		.cfi_offset 4, -8
 926              		.cfi_offset 14, -4
 927 0002 90B0     		sub	sp, sp, #64
 928              	.LCFI12:
 929              		.cfi_def_cfa_offset 72
 280:Core/Src/main.c ****   RCC_ClkInitTypeDef RCC_ClkInitStruct = {0};
ARM GAS  /var/folders/t9/y_chwk8j4cv2jjx6x9_h4twc0000gn/T//ccKX2YF8.s 			page 33


 930              		.loc 1 280 3 view .LVU220
 280:Core/Src/main.c ****   RCC_ClkInitTypeDef RCC_ClkInitStruct = {0};
 931              		.loc 1 280 22 is_stmt 0 view .LVU221
 932 0004 06AC     		add	r4, sp, #24
 933 0006 2822     		movs	r2, #40
 934 0008 0021     		movs	r1, #0
 935 000a 2046     		mov	r0, r4
 936 000c FFF7FEFF 		bl	memset
 937              	.LVL98:
 281:Core/Src/main.c **** 
 938              		.loc 1 281 3 is_stmt 1 view .LVU222
 281:Core/Src/main.c **** 
 939              		.loc 1 281 22 is_stmt 0 view .LVU223
 940 0010 0023     		movs	r3, #0
 941 0012 0193     		str	r3, [sp, #4]
 942 0014 0293     		str	r3, [sp, #8]
 943 0016 0393     		str	r3, [sp, #12]
 944 0018 0493     		str	r3, [sp, #16]
 945 001a 0593     		str	r3, [sp, #20]
 286:Core/Src/main.c ****   RCC_OscInitStruct.HSIState = RCC_HSI_ON;
 946              		.loc 1 286 3 is_stmt 1 view .LVU224
 286:Core/Src/main.c ****   RCC_OscInitStruct.HSIState = RCC_HSI_ON;
 947              		.loc 1 286 36 is_stmt 0 view .LVU225
 948 001c 0223     		movs	r3, #2
 949 001e 0693     		str	r3, [sp, #24]
 287:Core/Src/main.c ****   RCC_OscInitStruct.HSICalibrationValue = RCC_HSICALIBRATION_DEFAULT;
 950              		.loc 1 287 3 is_stmt 1 view .LVU226
 287:Core/Src/main.c ****   RCC_OscInitStruct.HSICalibrationValue = RCC_HSICALIBRATION_DEFAULT;
 951              		.loc 1 287 30 is_stmt 0 view .LVU227
 952 0020 0123     		movs	r3, #1
 953 0022 0A93     		str	r3, [sp, #40]
 288:Core/Src/main.c ****   RCC_OscInitStruct.PLL.PLLState = RCC_PLL_NONE;
 954              		.loc 1 288 3 is_stmt 1 view .LVU228
 288:Core/Src/main.c ****   RCC_OscInitStruct.PLL.PLLState = RCC_PLL_NONE;
 955              		.loc 1 288 41 is_stmt 0 view .LVU229
 956 0024 1023     		movs	r3, #16
 957 0026 0B93     		str	r3, [sp, #44]
 289:Core/Src/main.c ****   if (HAL_RCC_OscConfig(&RCC_OscInitStruct) != HAL_OK)
 958              		.loc 1 289 3 is_stmt 1 view .LVU230
 290:Core/Src/main.c ****   {
 959              		.loc 1 290 3 view .LVU231
 290:Core/Src/main.c ****   {
 960              		.loc 1 290 7 is_stmt 0 view .LVU232
 961 0028 2046     		mov	r0, r4
 962 002a FFF7FEFF 		bl	HAL_RCC_OscConfig
 963              	.LVL99:
 290:Core/Src/main.c ****   {
 964              		.loc 1 290 6 discriminator 1 view .LVU233
 965 002e 60B9     		cbnz	r0, .L101
 297:Core/Src/main.c ****                               |RCC_CLOCKTYPE_PCLK1|RCC_CLOCKTYPE_PCLK2;
 966              		.loc 1 297 3 is_stmt 1 view .LVU234
 297:Core/Src/main.c ****                               |RCC_CLOCKTYPE_PCLK1|RCC_CLOCKTYPE_PCLK2;
 967              		.loc 1 297 31 is_stmt 0 view .LVU235
 968 0030 0F23     		movs	r3, #15
 969 0032 0193     		str	r3, [sp, #4]
 299:Core/Src/main.c ****   RCC_ClkInitStruct.AHBCLKDivider = RCC_SYSCLK_DIV1;
 970              		.loc 1 299 3 is_stmt 1 view .LVU236
ARM GAS  /var/folders/t9/y_chwk8j4cv2jjx6x9_h4twc0000gn/T//ccKX2YF8.s 			page 34


 299:Core/Src/main.c ****   RCC_ClkInitStruct.AHBCLKDivider = RCC_SYSCLK_DIV1;
 971              		.loc 1 299 34 is_stmt 0 view .LVU237
 972 0034 0146     		mov	r1, r0
 973 0036 0290     		str	r0, [sp, #8]
 300:Core/Src/main.c ****   RCC_ClkInitStruct.APB1CLKDivider = RCC_HCLK_DIV1;
 974              		.loc 1 300 3 is_stmt 1 view .LVU238
 300:Core/Src/main.c ****   RCC_ClkInitStruct.APB1CLKDivider = RCC_HCLK_DIV1;
 975              		.loc 1 300 35 is_stmt 0 view .LVU239
 976 0038 0390     		str	r0, [sp, #12]
 301:Core/Src/main.c ****   RCC_ClkInitStruct.APB2CLKDivider = RCC_HCLK_DIV1;
 977              		.loc 1 301 3 is_stmt 1 view .LVU240
 301:Core/Src/main.c ****   RCC_ClkInitStruct.APB2CLKDivider = RCC_HCLK_DIV1;
 978              		.loc 1 301 36 is_stmt 0 view .LVU241
 979 003a 0490     		str	r0, [sp, #16]
 302:Core/Src/main.c **** 
 980              		.loc 1 302 3 is_stmt 1 view .LVU242
 302:Core/Src/main.c **** 
 981              		.loc 1 302 36 is_stmt 0 view .LVU243
 982 003c 0590     		str	r0, [sp, #20]
 304:Core/Src/main.c ****   {
 983              		.loc 1 304 3 is_stmt 1 view .LVU244
 304:Core/Src/main.c ****   {
 984              		.loc 1 304 7 is_stmt 0 view .LVU245
 985 003e 01A8     		add	r0, sp, #4
 986 0040 FFF7FEFF 		bl	HAL_RCC_ClockConfig
 987              	.LVL100:
 304:Core/Src/main.c ****   {
 988              		.loc 1 304 6 discriminator 1 view .LVU246
 989 0044 18B9     		cbnz	r0, .L102
 308:Core/Src/main.c **** 
 990              		.loc 1 308 1 view .LVU247
 991 0046 10B0     		add	sp, sp, #64
 992              	.LCFI13:
 993              		.cfi_remember_state
 994              		.cfi_def_cfa_offset 8
 995              		@ sp needed
 996 0048 10BD     		pop	{r4, pc}
 997              	.L101:
 998              	.LCFI14:
 999              		.cfi_restore_state
 292:Core/Src/main.c ****   }
 1000              		.loc 1 292 5 is_stmt 1 view .LVU248
 1001 004a FFF7FEFF 		bl	Error_Handler
 1002              	.LVL101:
 1003              	.L102:
 306:Core/Src/main.c ****   }
 1004              		.loc 1 306 5 view .LVU249
 1005 004e FFF7FEFF 		bl	Error_Handler
 1006              	.LVL102:
 1007              		.cfi_endproc
 1008              	.LFE67:
 1010              		.section	.rodata.main.str1.4,"aMS",%progbits,1
 1011              		.align	2
 1012              	.LC0:
 1013 0000 0D0A5B42 		.ascii	"\015\012[BOOT] UART OK\015\012\000"
 1013      4F4F545D 
 1013      20554152 
ARM GAS  /var/folders/t9/y_chwk8j4cv2jjx6x9_h4twc0000gn/T//ccKX2YF8.s 			page 35


 1013      54204F4B 
 1013      0D0A00
 1014 0013 00       		.align	2
 1015              	.LC1:
 1016 0014 5B424F4F 		.ascii	"[BOOT] TIM2 OK\015\012\000"
 1016      545D2054 
 1016      494D3220 
 1016      4F4B0D0A 
 1016      00
 1017 0025 000000   		.align	2
 1018              	.LC2:
 1019 0028 5B424F4F 		.ascii	"[BOOT] TIM3 OK\015\012\000"
 1019      545D2054 
 1019      494D3320 
 1019      4F4B0D0A 
 1019      00
 1020 0039 000000   		.align	2
 1021              	.LC3:
 1022 003c 5B424F4F 		.ascii	"[BOOT] PERIPH OK\015\012\000"
 1022      545D2050 
 1022      45524950 
 1022      48204F4B 
 1022      0D0A00
 1023 004f 00       		.align	2
 1024              	.LC4:
 1025 0050 5B424F4F 		.ascii	"[BOOT] TACH OK\015\012\000"
 1025      545D2054 
 1025      41434820 
 1025      4F4B0D0A 
 1025      00
 1026 0061 000000   		.align	2
 1027              	.LC5:
 1028 0064 5B424F4F 		.ascii	"[BOOT] FAN OK\015\012\000"
 1028      545D2046 
 1028      414E204F 
 1028      4B0D0A00 
 1029              		.align	2
 1030              	.LC6:
 1031 0074 5B424F4F 		.ascii	"[BOOT] LED OK\015\012\000"
 1031      545D204C 
 1031      4544204F 
 1031      4B0D0A00 
 1032              		.align	2
 1033              	.LC7:
 1034 0084 5B424F4F 		.ascii	"[BOOT] BTN OK\015\012\000"
 1034      545D2042 
 1034      544E204F 
 1034      4B0D0A00 
 1035              		.align	2
 1036              	.LC8:
 1037 0094 5B424F4F 		.ascii	"[BOOT] TEMP OK\015\012\000"
 1037      545D2054 
 1037      454D5020 
 1037      4F4B0D0A 
 1037      00
 1038 00a5 000000   		.align	2
 1039              	.LC9:
ARM GAS  /var/folders/t9/y_chwk8j4cv2jjx6x9_h4twc0000gn/T//ccKX2YF8.s 			page 36


 1040 00a8 5B424F4F 		.ascii	"[BOOT] PROFIL OK\015\012\000"
 1040      545D2050 
 1040      524F4649 
 1040      4C204F4B 
 1040      0D0A00
 1041 00bb 00       		.align	2
 1042              	.LC10:
 1043 00bc 5B424F4F 		.ascii	"[BOOT] LCD OK\015\012\000"
 1043      545D204C 
 1043      4344204F 
 1043      4B0D0A00 
 1044              		.align	2
 1045              	.LC11:
 1046 00cc 5B424F4F 		.ascii	"[BOOT] APP OK\015\012\000"
 1046      545D2041 
 1046      5050204F 
 1046      4B0D0A00 
 1047              		.section	.text.main,"ax",%progbits
 1048              		.align	1
 1049              		.global	main
 1050              		.syntax unified
 1051              		.thumb
 1052              		.thumb_func
 1054              	main:
 1055              	.LFB66:
 151:Core/Src/main.c **** 
 1056              		.loc 1 151 1 view -0
 1057              		.cfi_startproc
 1058              		@ args = 0, pretend = 0, frame = 0
 1059              		@ frame_needed = 0, uses_anonymous_args = 0
 1060 0000 10B5     		push	{r4, lr}
 1061              	.LCFI15:
 1062              		.cfi_def_cfa_offset 8
 1063              		.cfi_offset 4, -8
 1064              		.cfi_offset 14, -4
 160:Core/Src/main.c **** 
 1065              		.loc 1 160 3 view .LVU251
 1066 0002 FFF7FEFF 		bl	HAL_Init
 1067              	.LVL103:
 167:Core/Src/main.c **** 
 1068              		.loc 1 167 3 view .LVU252
 1069 0006 FFF7FEFF 		bl	SystemClock_Config
 1070              	.LVL104:
 174:Core/Src/main.c ****   MX_USART1_UART_Init();
 1071              		.loc 1 174 3 view .LVU253
 1072 000a FFF7FEFF 		bl	MX_GPIO_Init
 1073              	.LVL105:
 175:Core/Src/main.c ****   BootTrace("\r\n[BOOT] UART OK\r\n");
 1074              		.loc 1 175 3 view .LVU254
 1075 000e FFF7FEFF 		bl	MX_USART1_UART_Init
 1076              	.LVL106:
 176:Core/Src/main.c ****   MX_TIM2_Init();
 1077              		.loc 1 176 3 view .LVU255
 1078 0012 5C48     		ldr	r0, .L117
 1079 0014 FFF7FEFF 		bl	BootTrace
 1080              	.LVL107:
 177:Core/Src/main.c ****   BootTrace("[BOOT] TIM2 OK\r\n");
ARM GAS  /var/folders/t9/y_chwk8j4cv2jjx6x9_h4twc0000gn/T//ccKX2YF8.s 			page 37


 1081              		.loc 1 177 3 view .LVU256
 1082 0018 FFF7FEFF 		bl	MX_TIM2_Init
 1083              	.LVL108:
 178:Core/Src/main.c ****   MX_TIM3_Init();
 1084              		.loc 1 178 3 view .LVU257
 1085 001c 5A48     		ldr	r0, .L117+4
 1086 001e FFF7FEFF 		bl	BootTrace
 1087              	.LVL109:
 179:Core/Src/main.c ****   BootTrace("[BOOT] TIM3 OK\r\n");
 1088              		.loc 1 179 3 view .LVU258
 1089 0022 FFF7FEFF 		bl	MX_TIM3_Init
 1090              	.LVL110:
 180:Core/Src/main.c ****   /* USER CODE BEGIN 2 */
 1091              		.loc 1 180 3 view .LVU259
 1092 0026 5948     		ldr	r0, .L117+8
 1093 0028 FFF7FEFF 		bl	BootTrace
 1094              	.LVL111:
 183:Core/Src/main.c ****   BootTrace("[BOOT] PERIPH OK\r\n");
 1095              		.loc 1 183 3 view .LVU260
 1096 002c FFF7FEFF 		bl	MX_AFLC_StartPeripherals
 1097              	.LVL112:
 184:Core/Src/main.c ****   Tachometer_Init();
 1098              		.loc 1 184 3 view .LVU261
 1099 0030 5748     		ldr	r0, .L117+12
 1100 0032 FFF7FEFF 		bl	BootTrace
 1101              	.LVL113:
 185:Core/Src/main.c ****   BootTrace("[BOOT] TACH OK\r\n");
 1102              		.loc 1 185 3 view .LVU262
 1103 0036 FFF7FEFF 		bl	Tachometer_Init
 1104              	.LVL114:
 186:Core/Src/main.c ****   FanControl_Init(&htim3);
 1105              		.loc 1 186 3 view .LVU263
 1106 003a 5648     		ldr	r0, .L117+16
 1107 003c FFF7FEFF 		bl	BootTrace
 1108              	.LVL115:
 187:Core/Src/main.c ****   BootTrace("[BOOT] FAN OK\r\n");
 1109              		.loc 1 187 3 view .LVU264
 1110 0040 5548     		ldr	r0, .L117+20
 1111 0042 FFF7FEFF 		bl	FanControl_Init
 1112              	.LVL116:
 188:Core/Src/main.c ****   LedStatus_Init();
 1113              		.loc 1 188 3 view .LVU265
 1114 0046 5548     		ldr	r0, .L117+24
 1115 0048 FFF7FEFF 		bl	BootTrace
 1116              	.LVL117:
 189:Core/Src/main.c ****   BootTrace("[BOOT] LED OK\r\n");
 1117              		.loc 1 189 3 view .LVU266
 1118 004c FFF7FEFF 		bl	LedStatus_Init
 1119              	.LVL118:
 190:Core/Src/main.c ****   Button_Init();
 1120              		.loc 1 190 3 view .LVU267
 1121 0050 5348     		ldr	r0, .L117+28
 1122 0052 FFF7FEFF 		bl	BootTrace
 1123              	.LVL119:
 191:Core/Src/main.c ****   BootTrace("[BOOT] BTN OK\r\n");
 1124              		.loc 1 191 3 view .LVU268
 1125 0056 FFF7FEFF 		bl	Button_Init
ARM GAS  /var/folders/t9/y_chwk8j4cv2jjx6x9_h4twc0000gn/T//ccKX2YF8.s 			page 38


 1126              	.LVL120:
 192:Core/Src/main.c ****   TemperatureStub_Init();
 1127              		.loc 1 192 3 view .LVU269
 1128 005a 5248     		ldr	r0, .L117+32
 1129 005c FFF7FEFF 		bl	BootTrace
 1130              	.LVL121:
 193:Core/Src/main.c ****   BootTrace("[BOOT] TEMP OK\r\n");
 1131              		.loc 1 193 3 view .LVU270
 1132 0060 FFF7FEFF 		bl	TemperatureStub_Init
 1133              	.LVL122:
 194:Core/Src/main.c ****   Profil_Init();
 1134              		.loc 1 194 3 view .LVU271
 1135 0064 5048     		ldr	r0, .L117+36
 1136 0066 FFF7FEFF 		bl	BootTrace
 1137              	.LVL123:
 195:Core/Src/main.c ****   BootTrace("[BOOT] PROFIL OK\r\n");
 1138              		.loc 1 195 3 view .LVU272
 1139 006a FFF7FEFF 		bl	Profil_Init
 1140              	.LVL124:
 196:Core/Src/main.c ****   UI_LCD_Init();
 1141              		.loc 1 196 3 view .LVU273
 1142 006e 4F48     		ldr	r0, .L117+40
 1143 0070 FFF7FEFF 		bl	BootTrace
 1144              	.LVL125:
 197:Core/Src/main.c ****   BootTrace("[BOOT] LCD OK\r\n");
 1145              		.loc 1 197 3 view .LVU274
 1146 0074 FFF7FEFF 		bl	UI_LCD_Init
 1147              	.LVL126:
 198:Core/Src/main.c ****   UART_Cmd_Init();
 1148              		.loc 1 198 3 view .LVU275
 1149 0078 4D48     		ldr	r0, .L117+44
 1150 007a FFF7FEFF 		bl	BootTrace
 1151              	.LVL127:
 199:Core/Src/main.c ****   BootTrace("[BOOT] APP OK\r\n");
 1152              		.loc 1 199 3 view .LVU276
 1153 007e FFF7FEFF 		bl	UART_Cmd_Init
 1154              	.LVL128:
 200:Core/Src/main.c **** 
 1155              		.loc 1 200 3 view .LVU277
 1156 0082 4C48     		ldr	r0, .L117+48
 1157 0084 FFF7FEFF 		bl	BootTrace
 1158              	.LVL129:
 202:Core/Src/main.c ****   g_app.profiles = NULL;
 1159              		.loc 1 202 3 view .LVU278
 202:Core/Src/main.c ****   g_app.profiles = NULL;
 1160              		.loc 1 202 24 is_stmt 0 view .LVU279
 1161 0088 FFF7FEFF 		bl	TemperatureStub_GetSnapshot
 1162              	.LVL130:
 202:Core/Src/main.c ****   g_app.profiles = NULL;
 1163              		.loc 1 202 22 discriminator 1 view .LVU280
 1164 008c 4A4B     		ldr	r3, .L117+52
 1165 008e D862     		str	r0, [r3, #44]
 203:Core/Src/main.c ****   g_app.startup_passed_mask = 0U;
 1166              		.loc 1 203 3 is_stmt 1 view .LVU281
 203:Core/Src/main.c ****   g_app.startup_passed_mask = 0U;
 1167              		.loc 1 203 18 is_stmt 0 view .LVU282
 1168 0090 0024     		movs	r4, #0
ARM GAS  /var/folders/t9/y_chwk8j4cv2jjx6x9_h4twc0000gn/T//ccKX2YF8.s 			page 39


 1169 0092 9C60     		str	r4, [r3, #8]
 204:Core/Src/main.c ****   g_app.startup_fail_mask = 0U;
 1170              		.loc 1 204 3 is_stmt 1 view .LVU283
 204:Core/Src/main.c ****   g_app.startup_fail_mask = 0U;
 1171              		.loc 1 204 29 is_stmt 0 view .LVU284
 1172 0094 83F83040 		strb	r4, [r3, #48]
 205:Core/Src/main.c **** 
 1173              		.loc 1 205 3 is_stmt 1 view .LVU285
 205:Core/Src/main.c **** 
 1174              		.loc 1 205 27 is_stmt 0 view .LVU286
 1175 0098 83F83140 		strb	r4, [r3, #49]
 207:Core/Src/main.c ****   g_next_tach_task_ms = HAL_GetTick();
 1176              		.loc 1 207 3 is_stmt 1 view .LVU287
 207:Core/Src/main.c ****   g_next_tach_task_ms = HAL_GetTick();
 1177              		.loc 1 207 27 is_stmt 0 view .LVU288
 1178 009c FFF7FEFF 		bl	HAL_GetTick
 1179              	.LVL131:
 207:Core/Src/main.c ****   g_next_tach_task_ms = HAL_GetTick();
 1180              		.loc 1 207 25 discriminator 1 view .LVU289
 1181 00a0 464B     		ldr	r3, .L117+56
 1182 00a2 1860     		str	r0, [r3]
 208:Core/Src/main.c ****   g_next_fan_task_ms = HAL_GetTick();
 1183              		.loc 1 208 3 is_stmt 1 view .LVU290
 208:Core/Src/main.c ****   g_next_fan_task_ms = HAL_GetTick();
 1184              		.loc 1 208 25 is_stmt 0 view .LVU291
 1185 00a4 FFF7FEFF 		bl	HAL_GetTick
 1186              	.LVL132:
 208:Core/Src/main.c ****   g_next_fan_task_ms = HAL_GetTick();
 1187              		.loc 1 208 23 discriminator 1 view .LVU292
 1188 00a8 454B     		ldr	r3, .L117+60
 1189 00aa 1860     		str	r0, [r3]
 209:Core/Src/main.c ****   g_next_control_task_ms = HAL_GetTick();
 1190              		.loc 1 209 3 is_stmt 1 view .LVU293
 209:Core/Src/main.c ****   g_next_control_task_ms = HAL_GetTick();
 1191              		.loc 1 209 24 is_stmt 0 view .LVU294
 1192 00ac FFF7FEFF 		bl	HAL_GetTick
 1193              	.LVL133:
 209:Core/Src/main.c ****   g_next_control_task_ms = HAL_GetTick();
 1194              		.loc 1 209 22 discriminator 1 view .LVU295
 1195 00b0 444B     		ldr	r3, .L117+64
 1196 00b2 1860     		str	r0, [r3]
 210:Core/Src/main.c ****   g_next_led_task_ms = HAL_GetTick();
 1197              		.loc 1 210 3 is_stmt 1 view .LVU296
 210:Core/Src/main.c ****   g_next_led_task_ms = HAL_GetTick();
 1198              		.loc 1 210 28 is_stmt 0 view .LVU297
 1199 00b4 FFF7FEFF 		bl	HAL_GetTick
 1200              	.LVL134:
 210:Core/Src/main.c ****   g_next_led_task_ms = HAL_GetTick();
 1201              		.loc 1 210 26 discriminator 1 view .LVU298
 1202 00b8 434B     		ldr	r3, .L117+68
 1203 00ba 1860     		str	r0, [r3]
 211:Core/Src/main.c ****   g_next_temperature_task_ms = HAL_GetTick();
 1204              		.loc 1 211 3 is_stmt 1 view .LVU299
 211:Core/Src/main.c ****   g_next_temperature_task_ms = HAL_GetTick();
 1205              		.loc 1 211 24 is_stmt 0 view .LVU300
 1206 00bc FFF7FEFF 		bl	HAL_GetTick
 1207              	.LVL135:
ARM GAS  /var/folders/t9/y_chwk8j4cv2jjx6x9_h4twc0000gn/T//ccKX2YF8.s 			page 40


 211:Core/Src/main.c ****   g_next_temperature_task_ms = HAL_GetTick();
 1208              		.loc 1 211 22 discriminator 1 view .LVU301
 1209 00c0 424B     		ldr	r3, .L117+72
 1210 00c2 1860     		str	r0, [r3]
 212:Core/Src/main.c **** 
 1211              		.loc 1 212 3 is_stmt 1 view .LVU302
 212:Core/Src/main.c **** 
 1212              		.loc 1 212 32 is_stmt 0 view .LVU303
 1213 00c4 FFF7FEFF 		bl	HAL_GetTick
 1214              	.LVL136:
 212:Core/Src/main.c **** 
 1215              		.loc 1 212 30 discriminator 1 view .LVU304
 1216 00c8 414B     		ldr	r3, .L117+76
 1217 00ca 1860     		str	r0, [r3]
 214:Core/Src/main.c ****   /* USER CODE END 2 */
 1218              		.loc 1 214 3 is_stmt 1 view .LVU305
 1219 00cc FFF7FEFF 		bl	HAL_GetTick
 1220              	.LVL137:
 1221 00d0 0146     		mov	r1, r0
 214:Core/Src/main.c ****   /* USER CODE END 2 */
 1222              		.loc 1 214 3 is_stmt 0 discriminator 1 view .LVU306
 1223 00d2 2046     		mov	r0, r4
 1224 00d4 FFF7FEFF 		bl	AFLC_AppEnterState
 1225              	.LVL138:
 1226 00d8 19E0     		b	.L109
 1227              	.LVL139:
 1228              	.L104:
 1229              	.LBB6:
 234:Core/Src/main.c ****     {
 1230              		.loc 1 234 5 is_stmt 1 view .LVU307
 234:Core/Src/main.c ****     {
 1231              		.loc 1 234 16 is_stmt 0 view .LVU308
 1232 00da 394B     		ldr	r3, .L117+60
 1233 00dc 1B68     		ldr	r3, [r3]
 234:Core/Src/main.c ****     {
 1234              		.loc 1 234 8 view .LVU309
 1235 00de A342     		cmp	r3, r4
 1236 00e0 25D9     		bls	.L112
 1237              	.L105:
 240:Core/Src/main.c ****     {
 1238              		.loc 1 240 5 is_stmt 1 view .LVU310
 240:Core/Src/main.c ****     {
 1239              		.loc 1 240 16 is_stmt 0 view .LVU311
 1240 00e2 384B     		ldr	r3, .L117+64
 1241 00e4 1B68     		ldr	r3, [r3]
 240:Core/Src/main.c ****     {
 1242              		.loc 1 240 8 view .LVU312
 1243 00e6 A342     		cmp	r3, r4
 1244 00e8 29D9     		bls	.L113
 1245              	.L106:
 246:Core/Src/main.c ****     {
 1246              		.loc 1 246 5 is_stmt 1 view .LVU313
 246:Core/Src/main.c ****     {
 1247              		.loc 1 246 16 is_stmt 0 view .LVU314
 1248 00ea 394B     		ldr	r3, .L117+76
 1249 00ec 1B68     		ldr	r3, [r3]
 246:Core/Src/main.c ****     {
ARM GAS  /var/folders/t9/y_chwk8j4cv2jjx6x9_h4twc0000gn/T//ccKX2YF8.s 			page 41


 1250              		.loc 1 246 8 view .LVU315
 1251 00ee A342     		cmp	r3, r4
 1252 00f0 2DD9     		bls	.L114
 1253              	.L107:
 253:Core/Src/main.c ****     {
 1254              		.loc 1 253 5 is_stmt 1 view .LVU316
 253:Core/Src/main.c ****     {
 1255              		.loc 1 253 16 is_stmt 0 view .LVU317
 1256 00f2 354B     		ldr	r3, .L117+68
 1257 00f4 1B68     		ldr	r3, [r3]
 253:Core/Src/main.c ****     {
 1258              		.loc 1 253 8 view .LVU318
 1259 00f6 A342     		cmp	r3, r4
 1260 00f8 35D9     		bls	.L115
 1261              	.L108:
 259:Core/Src/main.c ****     UI_LCD_Task(now_ms);
 1262              		.loc 1 259 5 is_stmt 1 view .LVU319
 1263 00fa 2046     		mov	r0, r4
 1264 00fc FFF7FEFF 		bl	AFLC_AppTask
 1265              	.LVL140:
 260:Core/Src/main.c **** 
 1266              		.loc 1 260 5 view .LVU320
 1267 0100 2046     		mov	r0, r4
 1268 0102 FFF7FEFF 		bl	UI_LCD_Task
 1269              	.LVL141:
 262:Core/Src/main.c ****     {
 1270              		.loc 1 262 5 view .LVU321
 262:Core/Src/main.c ****     {
 1271              		.loc 1 262 16 is_stmt 0 view .LVU322
 1272 0106 314B     		ldr	r3, .L117+72
 1273 0108 1B68     		ldr	r3, [r3]
 262:Core/Src/main.c ****     {
 1274              		.loc 1 262 8 view .LVU323
 1275 010a A342     		cmp	r3, r4
 1276 010c 32D9     		bls	.L116
 1277              	.LVL142:
 1278              	.L109:
 262:Core/Src/main.c ****     {
 1279              		.loc 1 262 8 view .LVU324
 1280              	.LBE6:
 219:Core/Src/main.c ****   {
 1281              		.loc 1 219 3 is_stmt 1 view .LVU325
 1282              	.LBB7:
 224:Core/Src/main.c **** 
 1283              		.loc 1 224 5 view .LVU326
 224:Core/Src/main.c **** 
 1284              		.loc 1 224 23 is_stmt 0 view .LVU327
 1285 010e FFF7FEFF 		bl	HAL_GetTick
 1286              	.LVL143:
 1287 0112 0446     		mov	r4, r0
 1288              	.LVL144:
 226:Core/Src/main.c **** 
 1289              		.loc 1 226 5 is_stmt 1 view .LVU328
 1290 0114 FFF7FEFF 		bl	UART_Cmd_Task
 1291              	.LVL145:
 228:Core/Src/main.c ****     {
 1292              		.loc 1 228 5 view .LVU329
ARM GAS  /var/folders/t9/y_chwk8j4cv2jjx6x9_h4twc0000gn/T//ccKX2YF8.s 			page 42


 228:Core/Src/main.c ****     {
 1293              		.loc 1 228 16 is_stmt 0 view .LVU330
 1294 0118 284B     		ldr	r3, .L117+56
 1295 011a 1B68     		ldr	r3, [r3]
 228:Core/Src/main.c ****     {
 1296              		.loc 1 228 8 view .LVU331
 1297 011c A342     		cmp	r3, r4
 1298 011e DCD8     		bhi	.L104
 230:Core/Src/main.c ****       Button_Task();
 1299              		.loc 1 230 7 is_stmt 1 view .LVU332
 230:Core/Src/main.c ****       Button_Task();
 1300              		.loc 1 230 38 is_stmt 0 view .LVU333
 1301 0120 04F11403 		add	r3, r4, #20
 230:Core/Src/main.c ****       Button_Task();
 1302              		.loc 1 230 29 view .LVU334
 1303 0124 254A     		ldr	r2, .L117+56
 1304 0126 1360     		str	r3, [r2]
 231:Core/Src/main.c ****     }
 1305              		.loc 1 231 7 is_stmt 1 view .LVU335
 1306 0128 FFF7FEFF 		bl	Button_Task
 1307              	.LVL146:
 1308 012c D5E7     		b	.L104
 1309              	.L112:
 236:Core/Src/main.c ****       Tachometer_Task(now_ms);
 1310              		.loc 1 236 7 view .LVU336
 236:Core/Src/main.c ****       Tachometer_Task(now_ms);
 1311              		.loc 1 236 36 is_stmt 0 view .LVU337
 1312 012e 04F13203 		add	r3, r4, #50
 236:Core/Src/main.c ****       Tachometer_Task(now_ms);
 1313              		.loc 1 236 27 view .LVU338
 1314 0132 234A     		ldr	r2, .L117+60
 1315 0134 1360     		str	r3, [r2]
 237:Core/Src/main.c ****     }
 1316              		.loc 1 237 7 is_stmt 1 view .LVU339
 1317 0136 2046     		mov	r0, r4
 1318 0138 FFF7FEFF 		bl	Tachometer_Task
 1319              	.LVL147:
 1320 013c D1E7     		b	.L105
 1321              	.L113:
 242:Core/Src/main.c ****       FanControl_Task(now_ms);
 1322              		.loc 1 242 7 view .LVU340
 242:Core/Src/main.c ****       FanControl_Task(now_ms);
 1323              		.loc 1 242 35 is_stmt 0 view .LVU341
 1324 013e 04F16403 		add	r3, r4, #100
 242:Core/Src/main.c ****       FanControl_Task(now_ms);
 1325              		.loc 1 242 26 view .LVU342
 1326 0142 204A     		ldr	r2, .L117+64
 1327 0144 1360     		str	r3, [r2]
 243:Core/Src/main.c ****     }
 1328              		.loc 1 243 7 is_stmt 1 view .LVU343
 1329 0146 2046     		mov	r0, r4
 1330 0148 FFF7FEFF 		bl	FanControl_Task
 1331              	.LVL148:
 1332 014c CDE7     		b	.L106
 1333              	.L114:
 248:Core/Src/main.c ****       TemperatureStub_Task(now_ms);
 1334              		.loc 1 248 7 view .LVU344
ARM GAS  /var/folders/t9/y_chwk8j4cv2jjx6x9_h4twc0000gn/T//ccKX2YF8.s 			page 43


 248:Core/Src/main.c ****       TemperatureStub_Task(now_ms);
 1335              		.loc 1 248 43 is_stmt 0 view .LVU345
 1336 014e 04F1FA03 		add	r3, r4, #250
 248:Core/Src/main.c ****       TemperatureStub_Task(now_ms);
 1337              		.loc 1 248 34 view .LVU346
 1338 0152 1F4A     		ldr	r2, .L117+76
 1339 0154 1360     		str	r3, [r2]
 249:Core/Src/main.c ****       g_app.temperatures = TemperatureStub_GetSnapshot();
 1340              		.loc 1 249 7 is_stmt 1 view .LVU347
 1341 0156 2046     		mov	r0, r4
 1342 0158 FFF7FEFF 		bl	TemperatureStub_Task
 1343              	.LVL149:
 250:Core/Src/main.c ****     }
 1344              		.loc 1 250 7 view .LVU348
 250:Core/Src/main.c ****     }
 1345              		.loc 1 250 28 is_stmt 0 view .LVU349
 1346 015c FFF7FEFF 		bl	TemperatureStub_GetSnapshot
 1347              	.LVL150:
 250:Core/Src/main.c ****     }
 1348              		.loc 1 250 26 discriminator 1 view .LVU350
 1349 0160 154B     		ldr	r3, .L117+52
 1350 0162 D862     		str	r0, [r3, #44]
 1351 0164 C5E7     		b	.L107
 1352              	.L115:
 255:Core/Src/main.c ****       AFLC_RuntimeStep();
 1353              		.loc 1 255 7 is_stmt 1 view .LVU351
 255:Core/Src/main.c ****       AFLC_RuntimeStep();
 1354              		.loc 1 255 39 is_stmt 0 view .LVU352
 1355 0166 04F1FA03 		add	r3, r4, #250
 255:Core/Src/main.c ****       AFLC_RuntimeStep();
 1356              		.loc 1 255 30 view .LVU353
 1357 016a 174A     		ldr	r2, .L117+68
 1358 016c 1360     		str	r3, [r2]
 256:Core/Src/main.c ****     }
 1359              		.loc 1 256 7 is_stmt 1 view .LVU354
 1360 016e FFF7FEFF 		bl	AFLC_RuntimeStep
 1361              	.LVL151:
 1362 0172 C2E7     		b	.L108
 1363              	.L116:
 264:Core/Src/main.c ****       LedStatus_Task(now_ms);
 1364              		.loc 1 264 7 view .LVU355
 264:Core/Src/main.c ****       LedStatus_Task(now_ms);
 1365              		.loc 1 264 35 is_stmt 0 view .LVU356
 1366 0174 04F13202 		add	r2, r4, #50
 264:Core/Src/main.c ****       LedStatus_Task(now_ms);
 1367              		.loc 1 264 26 view .LVU357
 1368 0178 144B     		ldr	r3, .L117+72
 1369 017a 1A60     		str	r2, [r3]
 265:Core/Src/main.c ****     }
 1370              		.loc 1 265 7 is_stmt 1 view .LVU358
 1371 017c 2046     		mov	r0, r4
 1372 017e FFF7FEFF 		bl	LedStatus_Task
 1373              	.LVL152:
 1374 0182 C4E7     		b	.L109
 1375              	.L118:
 1376              		.align	2
 1377              	.L117:
ARM GAS  /var/folders/t9/y_chwk8j4cv2jjx6x9_h4twc0000gn/T//ccKX2YF8.s 			page 44


 1378 0184 00000000 		.word	.LC0
 1379 0188 14000000 		.word	.LC1
 1380 018c 28000000 		.word	.LC2
 1381 0190 3C000000 		.word	.LC3
 1382 0194 50000000 		.word	.LC4
 1383 0198 00000000 		.word	htim3
 1384 019c 64000000 		.word	.LC5
 1385 01a0 74000000 		.word	.LC6
 1386 01a4 84000000 		.word	.LC7
 1387 01a8 94000000 		.word	.LC8
 1388 01ac A8000000 		.word	.LC9
 1389 01b0 BC000000 		.word	.LC10
 1390 01b4 CC000000 		.word	.LC11
 1391 01b8 00000000 		.word	g_app
 1392 01bc 00000000 		.word	g_next_button_task_ms
 1393 01c0 00000000 		.word	g_next_tach_task_ms
 1394 01c4 00000000 		.word	g_next_fan_task_ms
 1395 01c8 00000000 		.word	g_next_control_task_ms
 1396 01cc 00000000 		.word	g_next_led_task_ms
 1397 01d0 00000000 		.word	g_next_temperature_task_ms
 1398              	.LBE7:
 1399              		.cfi_endproc
 1400              	.LFE66:
 1402              		.section	.bss.g_app,"aw",%nobits
 1403              		.align	2
 1406              	g_app:
 1407 0000 00000000 		.space	52
 1407      00000000 
 1407      00000000 
 1407      00000000 
 1407      00000000 
 1408              		.section	.bss.g_next_temperature_task_ms,"aw",%nobits
 1409              		.align	2
 1412              	g_next_temperature_task_ms:
 1413 0000 00000000 		.space	4
 1414              		.section	.bss.g_next_led_task_ms,"aw",%nobits
 1415              		.align	2
 1418              	g_next_led_task_ms:
 1419 0000 00000000 		.space	4
 1420              		.section	.bss.g_next_control_task_ms,"aw",%nobits
 1421              		.align	2
 1424              	g_next_control_task_ms:
 1425 0000 00000000 		.space	4
 1426              		.section	.bss.g_next_fan_task_ms,"aw",%nobits
 1427              		.align	2
 1430              	g_next_fan_task_ms:
 1431 0000 00000000 		.space	4
 1432              		.section	.bss.g_next_tach_task_ms,"aw",%nobits
 1433              		.align	2
 1436              	g_next_tach_task_ms:
 1437 0000 00000000 		.space	4
 1438              		.section	.bss.g_next_button_task_ms,"aw",%nobits
 1439              		.align	2
 1442              	g_next_button_task_ms:
 1443 0000 00000000 		.space	4
 1444              		.text
 1445              	.Letext0:
ARM GAS  /var/folders/t9/y_chwk8j4cv2jjx6x9_h4twc0000gn/T//ccKX2YF8.s 			page 45


 1446              		.file 3 "/Applications/ArmGNUToolchain/15.2.rel1/arm-none-eabi/arm-none-eabi/include/machine/_defa
 1447              		.file 4 "/Applications/ArmGNUToolchain/15.2.rel1/arm-none-eabi/arm-none-eabi/include/sys/_stdint.h
 1448              		.file 5 "Drivers/CMSIS/Device/ST/STM32F1xx/Include/stm32f103xb.h"
 1449              		.file 6 "/Applications/ArmGNUToolchain/15.2.rel1/arm-none-eabi/lib/gcc/arm-none-eabi/15.2.1/includ
 1450              		.file 7 "Drivers/STM32F1xx_HAL_Driver/Inc/stm32f1xx_hal_def.h"
 1451              		.file 8 "Drivers/STM32F1xx_HAL_Driver/Inc/stm32f1xx_hal_rcc.h"
 1452              		.file 9 "Drivers/STM32F1xx_HAL_Driver/Inc/stm32f1xx_hal_rcc_ex.h"
 1453              		.file 10 "Drivers/STM32F1xx_HAL_Driver/Inc/stm32f1xx_hal_dma.h"
 1454              		.file 11 "Drivers/STM32F1xx_HAL_Driver/Inc/stm32f1xx_hal_tim.h"
 1455              		.file 12 "Drivers/STM32F1xx_HAL_Driver/Inc/stm32f1xx_hal_uart.h"
 1456              		.file 13 "Core/Inc/tim.h"
 1457              		.file 14 "Core/Inc/usart.h"
 1458              		.file 15 "Core/Inc/Profil.h"
 1459              		.file 16 "Core/Inc/tachometer.h"
 1460              		.file 17 "Core/Inc/temperature_stub.h"
 1461              		.file 18 "Core/Inc/AFLCalcul.h"
 1462              		.file 19 "Core/Inc/fan_control.h"
 1463              		.file 20 "Core/Inc/led_status.h"
 1464              		.file 21 "Core/Inc/ui_lcd.h"
 1465              		.file 22 "Core/Inc/button.h"
 1466              		.file 23 "Core/Inc/uart_cmd.h"
 1467              		.file 24 "Drivers/STM32F1xx_HAL_Driver/Inc/stm32f1xx_hal.h"
 1468              		.file 25 "Core/Inc/gpio.h"
 1469              		.file 26 "<built-in>"
ARM GAS  /var/folders/t9/y_chwk8j4cv2jjx6x9_h4twc0000gn/T//ccKX2YF8.s 			page 46


DEFINED SYMBOLS
                            *ABS*:00000000 main.c
/var/folders/t9/y_chwk8j4cv2jjx6x9_h4twc0000gn/T//ccKX2YF8.s:19     .text.AFLC_BuildMaxRpmArray:00000000 $t
/var/folders/t9/y_chwk8j4cv2jjx6x9_h4twc0000gn/T//ccKX2YF8.s:24     .text.AFLC_BuildMaxRpmArray:00000000 AFLC_BuildMaxRpmArray
/var/folders/t9/y_chwk8j4cv2jjx6x9_h4twc0000gn/T//ccKX2YF8.s:74     .text.AFLC_BuildMaxRpmArray:0000002c $d
/var/folders/t9/y_chwk8j4cv2jjx6x9_h4twc0000gn/T//ccKX2YF8.s:1406   .bss.g_app:00000000 g_app
/var/folders/t9/y_chwk8j4cv2jjx6x9_h4twc0000gn/T//ccKX2YF8.s:79     .text.BootTrace:00000000 $t
/var/folders/t9/y_chwk8j4cv2jjx6x9_h4twc0000gn/T//ccKX2YF8.s:84     .text.BootTrace:00000000 BootTrace
/var/folders/t9/y_chwk8j4cv2jjx6x9_h4twc0000gn/T//ccKX2YF8.s:142    .text.BootTrace:00000020 $d
/var/folders/t9/y_chwk8j4cv2jjx6x9_h4twc0000gn/T//ccKX2YF8.s:147    .text.AFLC_AppEnterState:00000000 $t
/var/folders/t9/y_chwk8j4cv2jjx6x9_h4twc0000gn/T//ccKX2YF8.s:152    .text.AFLC_AppEnterState:00000000 AFLC_AppEnterState
/var/folders/t9/y_chwk8j4cv2jjx6x9_h4twc0000gn/T//ccKX2YF8.s:273    .text.AFLC_AppEnterState:00000070 $d
/var/folders/t9/y_chwk8j4cv2jjx6x9_h4twc0000gn/T//ccKX2YF8.s:278    .text.AFLC_UpdateStartupPassMask:00000000 $t
/var/folders/t9/y_chwk8j4cv2jjx6x9_h4twc0000gn/T//ccKX2YF8.s:283    .text.AFLC_UpdateStartupPassMask:00000000 AFLC_UpdateStartupPassMask
/var/folders/t9/y_chwk8j4cv2jjx6x9_h4twc0000gn/T//ccKX2YF8.s:346    .text.AFLC_UpdateStartupPassMask:0000003c $d
/var/folders/t9/y_chwk8j4cv2jjx6x9_h4twc0000gn/T//ccKX2YF8.s:352    .text.AFLC_RuntimeStep:00000000 $t
/var/folders/t9/y_chwk8j4cv2jjx6x9_h4twc0000gn/T//ccKX2YF8.s:357    .text.AFLC_RuntimeStep:00000000 AFLC_RuntimeStep
/var/folders/t9/y_chwk8j4cv2jjx6x9_h4twc0000gn/T//ccKX2YF8.s:425    .text.AFLC_RuntimeStep:00000048 $d
/var/folders/t9/y_chwk8j4cv2jjx6x9_h4twc0000gn/T//ccKX2YF8.s:432    .text.AFLC_AppTask:00000000 $t
/var/folders/t9/y_chwk8j4cv2jjx6x9_h4twc0000gn/T//ccKX2YF8.s:437    .text.AFLC_AppTask:00000000 AFLC_AppTask
/var/folders/t9/y_chwk8j4cv2jjx6x9_h4twc0000gn/T//ccKX2YF8.s:716    .text.AFLC_AppTask:0000016c $d
/var/folders/t9/y_chwk8j4cv2jjx6x9_h4twc0000gn/T//ccKX2YF8.s:721    .text.HAL_TIM_IC_CaptureCallback:00000000 $t
/var/folders/t9/y_chwk8j4cv2jjx6x9_h4twc0000gn/T//ccKX2YF8.s:727    .text.HAL_TIM_IC_CaptureCallback:00000000 HAL_TIM_IC_CaptureCallback
/var/folders/t9/y_chwk8j4cv2jjx6x9_h4twc0000gn/T//ccKX2YF8.s:749    .text.Error_Handler:00000000 $t
/var/folders/t9/y_chwk8j4cv2jjx6x9_h4twc0000gn/T//ccKX2YF8.s:755    .text.Error_Handler:00000000 Error_Handler
/var/folders/t9/y_chwk8j4cv2jjx6x9_h4twc0000gn/T//ccKX2YF8.s:787    .text.MX_AFLC_StartPeripherals:00000000 $t
/var/folders/t9/y_chwk8j4cv2jjx6x9_h4twc0000gn/T//ccKX2YF8.s:792    .text.MX_AFLC_StartPeripherals:00000000 MX_AFLC_StartPeripherals
/var/folders/t9/y_chwk8j4cv2jjx6x9_h4twc0000gn/T//ccKX2YF8.s:904    .text.MX_AFLC_StartPeripherals:00000074 $d
/var/folders/t9/y_chwk8j4cv2jjx6x9_h4twc0000gn/T//ccKX2YF8.s:910    .text.SystemClock_Config:00000000 $t
/var/folders/t9/y_chwk8j4cv2jjx6x9_h4twc0000gn/T//ccKX2YF8.s:916    .text.SystemClock_Config:00000000 SystemClock_Config
/var/folders/t9/y_chwk8j4cv2jjx6x9_h4twc0000gn/T//ccKX2YF8.s:1011   .rodata.main.str1.4:00000000 $d
/var/folders/t9/y_chwk8j4cv2jjx6x9_h4twc0000gn/T//ccKX2YF8.s:1048   .text.main:00000000 $t
/var/folders/t9/y_chwk8j4cv2jjx6x9_h4twc0000gn/T//ccKX2YF8.s:1054   .text.main:00000000 main
/var/folders/t9/y_chwk8j4cv2jjx6x9_h4twc0000gn/T//ccKX2YF8.s:1378   .text.main:00000184 $d
/var/folders/t9/y_chwk8j4cv2jjx6x9_h4twc0000gn/T//ccKX2YF8.s:1442   .bss.g_next_button_task_ms:00000000 g_next_button_task_ms
/var/folders/t9/y_chwk8j4cv2jjx6x9_h4twc0000gn/T//ccKX2YF8.s:1436   .bss.g_next_tach_task_ms:00000000 g_next_tach_task_ms
/var/folders/t9/y_chwk8j4cv2jjx6x9_h4twc0000gn/T//ccKX2YF8.s:1430   .bss.g_next_fan_task_ms:00000000 g_next_fan_task_ms
/var/folders/t9/y_chwk8j4cv2jjx6x9_h4twc0000gn/T//ccKX2YF8.s:1424   .bss.g_next_control_task_ms:00000000 g_next_control_task_ms
/var/folders/t9/y_chwk8j4cv2jjx6x9_h4twc0000gn/T//ccKX2YF8.s:1418   .bss.g_next_led_task_ms:00000000 g_next_led_task_ms
/var/folders/t9/y_chwk8j4cv2jjx6x9_h4twc0000gn/T//ccKX2YF8.s:1412   .bss.g_next_temperature_task_ms:00000000 g_next_temperature_task_ms
/var/folders/t9/y_chwk8j4cv2jjx6x9_h4twc0000gn/T//ccKX2YF8.s:1403   .bss.g_app:00000000 $d
/var/folders/t9/y_chwk8j4cv2jjx6x9_h4twc0000gn/T//ccKX2YF8.s:1409   .bss.g_next_temperature_task_ms:00000000 $d
/var/folders/t9/y_chwk8j4cv2jjx6x9_h4twc0000gn/T//ccKX2YF8.s:1415   .bss.g_next_led_task_ms:00000000 $d
/var/folders/t9/y_chwk8j4cv2jjx6x9_h4twc0000gn/T//ccKX2YF8.s:1421   .bss.g_next_control_task_ms:00000000 $d
/var/folders/t9/y_chwk8j4cv2jjx6x9_h4twc0000gn/T//ccKX2YF8.s:1427   .bss.g_next_fan_task_ms:00000000 $d
/var/folders/t9/y_chwk8j4cv2jjx6x9_h4twc0000gn/T//ccKX2YF8.s:1433   .bss.g_next_tach_task_ms:00000000 $d
/var/folders/t9/y_chwk8j4cv2jjx6x9_h4twc0000gn/T//ccKX2YF8.s:1439   .bss.g_next_button_task_ms:00000000 $d

UNDEFINED SYMBOLS
HAL_UART_Transmit
huart1
LedStatus_SetMode
UI_LCD_ShowProfilesReady
UI_LCD_ShowWaitConfirm
Tachometer_GetSnapshot
AFLCalcul_Compute
FanControl_SetTargetRpmArray
ARM GAS  /var/folders/t9/y_chwk8j4cv2jjx6x9_h4twc0000gn/T//ccKX2YF8.s 			page 47


UI_LCD_ShowStartupTest
Profil_CalculateAll
Profil_GetResult
Button_IsConfirmPressed
Button_ClearConfirm
FanControl_EnterSafeState
UI_LCD_ShowSafeState
FanControl_SetDutyPermilleAll
FanControl_GetStatuses
UI_LCD_ShowRuntime
Tachometer_OnCapture
HAL_TIM_IC_Start_IT
HAL_TIM_PWM_Start
htim2
htim3
memset
HAL_RCC_OscConfig
HAL_RCC_ClockConfig
HAL_Init
MX_GPIO_Init
MX_USART1_UART_Init
MX_TIM2_Init
MX_TIM3_Init
Tachometer_Init
FanControl_Init
LedStatus_Init
Button_Init
TemperatureStub_Init
Profil_Init
UI_LCD_Init
UART_Cmd_Init
TemperatureStub_GetSnapshot
HAL_GetTick
UI_LCD_Task
UART_Cmd_Task
Button_Task
Tachometer_Task
FanControl_Task
TemperatureStub_Task
LedStatus_Task
