ARM GAS  /var/folders/t9/y_chwk8j4cv2jjx6x9_h4twc0000gn/T//ccVSp0hL.s 			page 1


   1              		.cpu cortex-m3
   2              		.arch armv7-m
   3              		.fpu softvfp
   4              		.eabi_attribute 20, 1
   5              		.eabi_attribute 21, 1
   6              		.eabi_attribute 23, 3
   7              		.eabi_attribute 24, 1
   8              		.eabi_attribute 25, 1
   9              		.eabi_attribute 26, 1
  10              		.eabi_attribute 30, 1
  11              		.eabi_attribute 34, 1
  12              		.eabi_attribute 18, 4
  13              		.file	"temperature_stub.c"
  14              		.text
  15              	.Ltext0:
  16              		.cfi_sections	.debug_frame
  17              		.file 1 "Core/Src/temperature_stub.c"
  18              		.section	.text.TemperatureStub_Init,"ax",%progbits
  19              		.align	1
  20              		.global	TemperatureStub_Init
  21              		.syntax unified
  22              		.thumb
  23              		.thumb_func
  25              	TemperatureStub_Init:
  26              	.LFB0:
   1:Core/Src/temperature_stub.c **** #include "temperature_stub.h"
   2:Core/Src/temperature_stub.c **** 
   3:Core/Src/temperature_stub.c **** // Stub temporaire.
   4:Core/Src/temperature_stub.c **** // Plus tard, ce module sera remplace par de vraies sondes.
   5:Core/Src/temperature_stub.c **** static TemperatureSnapshot_t g_temperatures;
   6:Core/Src/temperature_stub.c **** 
   7:Core/Src/temperature_stub.c **** void TemperatureStub_Init(void)
   8:Core/Src/temperature_stub.c **** {
  27              		.loc 1 8 1 view -0
  28              		.cfi_startproc
  29              		@ args = 0, pretend = 0, frame = 0
  30              		@ frame_needed = 0, uses_anonymous_args = 0
  31              		@ link register save eliminated.
   9:Core/Src/temperature_stub.c ****     // Valeurs de depart.
  10:Core/Src/temperature_stub.c ****     g_temperatures.values_c[0] = 28U;
  32              		.loc 1 10 5 view .LVU1
  33              		.loc 1 10 32 is_stmt 0 view .LVU2
  34 0000 044B     		ldr	r3, .L2
  35 0002 1C22     		movs	r2, #28
  36 0004 1A70     		strb	r2, [r3]
  11:Core/Src/temperature_stub.c ****     g_temperatures.values_c[1] = 31U;
  37              		.loc 1 11 5 is_stmt 1 view .LVU3
  38              		.loc 1 11 32 is_stmt 0 view .LVU4
  39 0006 1F22     		movs	r2, #31
  40 0008 5A70     		strb	r2, [r3, #1]
  12:Core/Src/temperature_stub.c ****     g_temperatures.values_c[2] = 34U;
  41              		.loc 1 12 5 is_stmt 1 view .LVU5
  42              		.loc 1 12 32 is_stmt 0 view .LVU6
  43 000a 2222     		movs	r2, #34
  44 000c 9A70     		strb	r2, [r3, #2]
  13:Core/Src/temperature_stub.c ****     g_temperatures.values_c[3] = 37U;
  45              		.loc 1 13 5 is_stmt 1 view .LVU7
ARM GAS  /var/folders/t9/y_chwk8j4cv2jjx6x9_h4twc0000gn/T//ccVSp0hL.s 			page 2


  46              		.loc 1 13 32 is_stmt 0 view .LVU8
  47 000e 2522     		movs	r2, #37
  48 0010 DA70     		strb	r2, [r3, #3]
  14:Core/Src/temperature_stub.c **** }
  49              		.loc 1 14 1 view .LVU9
  50 0012 7047     		bx	lr
  51              	.L3:
  52              		.align	2
  53              	.L2:
  54 0014 00000000 		.word	g_temperatures
  55              		.cfi_endproc
  56              	.LFE0:
  58              		.section	.text.TemperatureStub_Task,"ax",%progbits
  59              		.align	1
  60              		.global	TemperatureStub_Task
  61              		.syntax unified
  62              		.thumb
  63              		.thumb_func
  65              	TemperatureStub_Task:
  66              	.LVL0:
  67              	.LFB1:
  15:Core/Src/temperature_stub.c **** 
  16:Core/Src/temperature_stub.c **** void TemperatureStub_Task(uint32_t now_ms)
  17:Core/Src/temperature_stub.c **** {
  68              		.loc 1 17 1 is_stmt 1 view -0
  69              		.cfi_startproc
  70              		@ args = 0, pretend = 0, frame = 0
  71              		@ frame_needed = 0, uses_anonymous_args = 0
  72              		@ link register save eliminated.
  18:Core/Src/temperature_stub.c ****     uint8_t phase = (uint8_t)((now_ms / 2000UL) % 4UL);
  73              		.loc 1 18 5 view .LVU11
  74              		.loc 1 18 39 is_stmt 0 view .LVU12
  75 0000 084B     		ldr	r3, .L5
  76 0002 A3FB0030 		umull	r3, r0, r3, r0
  77              	.LVL1:
  78              		.loc 1 18 13 view .LVU13
  79 0006 C0F3C110 		ubfx	r0, r0, #7, #2
  80              	.LVL2:
  19:Core/Src/temperature_stub.c **** 
  20:Core/Src/temperature_stub.c ****     // Petite variation cyclique pour simuler une charge thermique.
  21:Core/Src/temperature_stub.c ****     g_temperatures.values_c[0] = (uint8_t)(28U + phase);
  81              		.loc 1 21 5 is_stmt 1 view .LVU14
  82              		.loc 1 21 34 is_stmt 0 view .LVU15
  83 000a 00F11C02 		add	r2, r0, #28
  84              		.loc 1 21 32 view .LVU16
  85 000e 064B     		ldr	r3, .L5+4
  86 0010 1A70     		strb	r2, [r3]
  22:Core/Src/temperature_stub.c ****     g_temperatures.values_c[1] = (uint8_t)(31U + (phase / 2U));
  87              		.loc 1 22 5 is_stmt 1 view .LVU17
  88              		.loc 1 22 34 is_stmt 0 view .LVU18
  89 0012 4208     		lsrs	r2, r0, #1
  90 0014 02F11F01 		add	r1, r2, #31
  91              		.loc 1 22 32 view .LVU19
  92 0018 5970     		strb	r1, [r3, #1]
  23:Core/Src/temperature_stub.c ****     g_temperatures.values_c[2] = (uint8_t)(34U + phase);
  93              		.loc 1 23 5 is_stmt 1 view .LVU20
  94              		.loc 1 23 34 is_stmt 0 view .LVU21
ARM GAS  /var/folders/t9/y_chwk8j4cv2jjx6x9_h4twc0000gn/T//ccVSp0hL.s 			page 3


  95 001a 2230     		adds	r0, r0, #34
  96              	.LVL3:
  97              		.loc 1 23 32 view .LVU22
  98 001c 9870     		strb	r0, [r3, #2]
  24:Core/Src/temperature_stub.c ****     g_temperatures.values_c[3] = (uint8_t)(37U + (phase / 2U));
  99              		.loc 1 24 5 is_stmt 1 view .LVU23
 100              		.loc 1 24 34 is_stmt 0 view .LVU24
 101 001e 2532     		adds	r2, r2, #37
 102              		.loc 1 24 32 view .LVU25
 103 0020 DA70     		strb	r2, [r3, #3]
  25:Core/Src/temperature_stub.c **** }
 104              		.loc 1 25 1 view .LVU26
 105 0022 7047     		bx	lr
 106              	.L6:
 107              		.align	2
 108              	.L5:
 109 0024 D34D6210 		.word	274877907
 110 0028 00000000 		.word	g_temperatures
 111              		.cfi_endproc
 112              	.LFE1:
 114              		.section	.text.TemperatureStub_GetSnapshot,"ax",%progbits
 115              		.align	1
 116              		.global	TemperatureStub_GetSnapshot
 117              		.syntax unified
 118              		.thumb
 119              		.thumb_func
 121              	TemperatureStub_GetSnapshot:
 122              	.LFB2:
  26:Core/Src/temperature_stub.c **** 
  27:Core/Src/temperature_stub.c **** const TemperatureSnapshot_t *TemperatureStub_GetSnapshot(void)
  28:Core/Src/temperature_stub.c **** {
 123              		.loc 1 28 1 is_stmt 1 view -0
 124              		.cfi_startproc
 125              		@ args = 0, pretend = 0, frame = 0
 126              		@ frame_needed = 0, uses_anonymous_args = 0
 127              		@ link register save eliminated.
  29:Core/Src/temperature_stub.c ****     return &g_temperatures;
 128              		.loc 1 29 5 view .LVU28
  30:Core/Src/temperature_stub.c **** }
 129              		.loc 1 30 1 is_stmt 0 view .LVU29
 130 0000 0048     		ldr	r0, .L8
 131 0002 7047     		bx	lr
 132              	.L9:
 133              		.align	2
 134              	.L8:
 135 0004 00000000 		.word	g_temperatures
 136              		.cfi_endproc
 137              	.LFE2:
 139              		.section	.bss.g_temperatures,"aw",%nobits
 140              		.align	2
 143              	g_temperatures:
 144 0000 00000000 		.space	4
 145              		.text
 146              	.Letext0:
 147              		.file 2 "/Applications/ArmGNUToolchain/15.2.rel1/arm-none-eabi/arm-none-eabi/include/machine/_defa
 148              		.file 3 "/Applications/ArmGNUToolchain/15.2.rel1/arm-none-eabi/arm-none-eabi/include/sys/_stdint.h
 149              		.file 4 "Core/Inc/temperature_stub.h"
ARM GAS  /var/folders/t9/y_chwk8j4cv2jjx6x9_h4twc0000gn/T//ccVSp0hL.s 			page 4


ARM GAS  /var/folders/t9/y_chwk8j4cv2jjx6x9_h4twc0000gn/T//ccVSp0hL.s 			page 5

