ARM GAS  /var/folders/t9/y_chwk8j4cv2jjx6x9_h4twc0000gn/T//ccjMeHU7.s 			page 1


   1              		.cpu cortex-m3
   2              		.arch armv7-m
   3              		.fpu softvfp
   4              		.eabi_attribute 20, 1
   5              		.eabi_attribute 21, 1
   6              		.eabi_attribute 23, 3
   7              		.eabi_attribute 24, 1
   8              		.eabi_attribute 25, 1
   9              		.eabi_attribute 26, 1
  10              		.eabi_attribute 30, 1
  11              		.eabi_attribute 34, 1
  12              		.eabi_attribute 18, 4
  13              		.file	"ui_lcd.c"
  14              		.text
  15              	.Ltext0:
  16              		.cfi_sections	.debug_frame
  17              		.file 1 "Core/Src/ui_lcd.c"
  18              		.section	.text.UI_LCD_GetProfilePage,"ax",%progbits
  19              		.align	1
  20              		.syntax unified
  21              		.thumb
  22              		.thumb_func
  24              	UI_LCD_GetProfilePage:
  25              	.LFB81:
   1:Core/Src/ui_lcd.c **** #include "ui_lcd.h"
   2:Core/Src/ui_lcd.c **** 
   3:Core/Src/ui_lcd.c **** #include "LCD.h"
   4:Core/Src/ui_lcd.c **** 
   5:Core/Src/ui_lcd.c **** #include <stdio.h>
   6:Core/Src/ui_lcd.c **** #include <string.h>
   7:Core/Src/ui_lcd.c **** 
   8:Core/Src/ui_lcd.c **** // On limite le rafraichissement pour garder un LCD stable.
   9:Core/Src/ui_lcd.c **** #define UI_LCD_REFRESH_MS     250UL
  10:Core/Src/ui_lcd.c **** #define UI_LCD_PROFILE_PAGE_MS 1500UL
  11:Core/Src/ui_lcd.c **** 
  12:Core/Src/ui_lcd.c **** // Liste des ecrans applicatifs.
  13:Core/Src/ui_lcd.c **** typedef enum {
  14:Core/Src/ui_lcd.c ****     UI_SCREEN_NONE = 0,
  15:Core/Src/ui_lcd.c ****     UI_SCREEN_PROFILES_READY,
  16:Core/Src/ui_lcd.c ****     UI_SCREEN_WAIT_CONFIRM,
  17:Core/Src/ui_lcd.c ****     UI_SCREEN_STARTUP_TEST,
  18:Core/Src/ui_lcd.c ****     UI_SCREEN_RUNTIME,
  19:Core/Src/ui_lcd.c ****     UI_SCREEN_SAFE_STATE
  20:Core/Src/ui_lcd.c **** } UI_LCD_Screen_t;
  21:Core/Src/ui_lcd.c **** 
  22:Core/Src/ui_lcd.c **** // Contexte complet du LCD.
  23:Core/Src/ui_lcd.c **** typedef struct {
  24:Core/Src/ui_lcd.c ****     UI_LCD_Screen_t screen;
  25:Core/Src/ui_lcd.c ****     uint32_t next_refresh_ms;
  26:Core/Src/ui_lcd.c ****     uint32_t page_started_ms;
  27:Core/Src/ui_lcd.c ****     uint8_t page_index;
  28:Core/Src/ui_lcd.c ****     uint8_t dirty;
  29:Core/Src/ui_lcd.c ****     uint8_t passed_mask;
  30:Core/Src/ui_lcd.c ****     uint8_t fail_mask;
  31:Core/Src/ui_lcd.c ****     uint8_t complete;
  32:Core/Src/ui_lcd.c ****     const Profil_Result_t *profiles;
  33:Core/Src/ui_lcd.c ****     const TemperatureSnapshot_t *temps;
ARM GAS  /var/folders/t9/y_chwk8j4cv2jjx6x9_h4twc0000gn/T//ccjMeHU7.s 			page 2


  34:Core/Src/ui_lcd.c ****     const AFLCalcul_Output_t *targets;
  35:Core/Src/ui_lcd.c ****     const FanStatus_t *fans;
  36:Core/Src/ui_lcd.c ****     char cache[4][21];
  37:Core/Src/ui_lcd.c **** } UI_LCD_Context_t;
  38:Core/Src/ui_lcd.c **** 
  39:Core/Src/ui_lcd.c **** static UI_LCD_Context_t g_ui;
  40:Core/Src/ui_lcd.c **** 
  41:Core/Src/ui_lcd.c **** static void UI_LCD_ClearCache(void);
  42:Core/Src/ui_lcd.c **** static void UI_LCD_WriteLine(uint8_t row, const char *text);
  43:Core/Src/ui_lcd.c **** static void UI_LCD_Render(void);
  44:Core/Src/ui_lcd.c **** static void UI_LCD_RenderProfileScreen(const char *header);
  45:Core/Src/ui_lcd.c **** static void UI_LCD_RenderStartupTest(void);
  46:Core/Src/ui_lcd.c **** static void UI_LCD_RenderRuntime(void);
  47:Core/Src/ui_lcd.c **** static uint8_t UI_LCD_GetProfilePage(void);
  48:Core/Src/ui_lcd.c **** 
  49:Core/Src/ui_lcd.c **** void UI_LCD_Init(void)
  50:Core/Src/ui_lcd.c **** {
  51:Core/Src/ui_lcd.c ****     LCD_Init();
  52:Core/Src/ui_lcd.c ****     LCD_Clear();
  53:Core/Src/ui_lcd.c ****     UI_LCD_ClearCache();
  54:Core/Src/ui_lcd.c **** 
  55:Core/Src/ui_lcd.c ****     // Ecran vide au boot.
  56:Core/Src/ui_lcd.c ****     g_ui.screen = UI_SCREEN_NONE;
  57:Core/Src/ui_lcd.c ****     g_ui.next_refresh_ms = HAL_GetTick();
  58:Core/Src/ui_lcd.c ****     g_ui.page_started_ms = HAL_GetTick();
  59:Core/Src/ui_lcd.c ****     g_ui.page_index = 0U;
  60:Core/Src/ui_lcd.c ****     g_ui.dirty = 1U;
  61:Core/Src/ui_lcd.c **** }
  62:Core/Src/ui_lcd.c **** 
  63:Core/Src/ui_lcd.c **** void UI_LCD_Task(uint32_t now_ms)
  64:Core/Src/ui_lcd.c **** {
  65:Core/Src/ui_lcd.c ****     // Si rien n'a change et qu'on est avant le prochain refresh, on sort.
  66:Core/Src/ui_lcd.c ****     if ((now_ms < g_ui.next_refresh_ms) && (g_ui.dirty == 0U)) {
  67:Core/Src/ui_lcd.c ****         return;
  68:Core/Src/ui_lcd.c ****     }
  69:Core/Src/ui_lcd.c **** 
  70:Core/Src/ui_lcd.c ****     // On alterne entre page 1 et page 2 pour afficher 4 fans sur 20x4.
  71:Core/Src/ui_lcd.c ****     if ((g_ui.screen == UI_SCREEN_PROFILES_READY) || (g_ui.screen == UI_SCREEN_WAIT_CONFIRM) || (g_
  72:Core/Src/ui_lcd.c ****         if ((now_ms - g_ui.page_started_ms) >= UI_LCD_PROFILE_PAGE_MS) {
  73:Core/Src/ui_lcd.c ****             g_ui.page_started_ms = now_ms;
  74:Core/Src/ui_lcd.c ****             g_ui.page_index ^= 1U;
  75:Core/Src/ui_lcd.c ****             g_ui.dirty = 1U;
  76:Core/Src/ui_lcd.c ****         }
  77:Core/Src/ui_lcd.c ****     }
  78:Core/Src/ui_lcd.c **** 
  79:Core/Src/ui_lcd.c ****     g_ui.next_refresh_ms = now_ms + UI_LCD_REFRESH_MS;
  80:Core/Src/ui_lcd.c ****     UI_LCD_Render();
  81:Core/Src/ui_lcd.c ****     g_ui.dirty = 0U;
  82:Core/Src/ui_lcd.c **** }
  83:Core/Src/ui_lcd.c **** 
  84:Core/Src/ui_lcd.c **** void UI_LCD_ShowProfilesReady(const Profil_Result_t *profiles)
  85:Core/Src/ui_lcd.c **** {
  86:Core/Src/ui_lcd.c ****     if (g_ui.screen != UI_SCREEN_PROFILES_READY) {
  87:Core/Src/ui_lcd.c ****         g_ui.page_started_ms = HAL_GetTick();
  88:Core/Src/ui_lcd.c ****         g_ui.page_index = 0U;
  89:Core/Src/ui_lcd.c ****     }
  90:Core/Src/ui_lcd.c ****     g_ui.screen = UI_SCREEN_PROFILES_READY;
ARM GAS  /var/folders/t9/y_chwk8j4cv2jjx6x9_h4twc0000gn/T//ccjMeHU7.s 			page 3


  91:Core/Src/ui_lcd.c ****     g_ui.profiles = profiles;
  92:Core/Src/ui_lcd.c ****     g_ui.dirty = 1U;
  93:Core/Src/ui_lcd.c **** }
  94:Core/Src/ui_lcd.c **** 
  95:Core/Src/ui_lcd.c **** void UI_LCD_ShowWaitConfirm(const Profil_Result_t *profiles)
  96:Core/Src/ui_lcd.c **** {
  97:Core/Src/ui_lcd.c ****     if (g_ui.screen != UI_SCREEN_WAIT_CONFIRM) {
  98:Core/Src/ui_lcd.c ****         g_ui.page_started_ms = HAL_GetTick();
  99:Core/Src/ui_lcd.c ****         g_ui.page_index = 0U;
 100:Core/Src/ui_lcd.c ****     }
 101:Core/Src/ui_lcd.c ****     g_ui.screen = UI_SCREEN_WAIT_CONFIRM;
 102:Core/Src/ui_lcd.c ****     g_ui.profiles = profiles;
 103:Core/Src/ui_lcd.c ****     g_ui.dirty = 1U;
 104:Core/Src/ui_lcd.c **** }
 105:Core/Src/ui_lcd.c **** 
 106:Core/Src/ui_lcd.c **** void UI_LCD_ShowStartupTest(uint8_t passed_mask, uint8_t fail_mask, uint8_t complete)
 107:Core/Src/ui_lcd.c **** {
 108:Core/Src/ui_lcd.c ****     g_ui.screen = UI_SCREEN_STARTUP_TEST;
 109:Core/Src/ui_lcd.c ****     g_ui.passed_mask = passed_mask;
 110:Core/Src/ui_lcd.c ****     g_ui.fail_mask = fail_mask;
 111:Core/Src/ui_lcd.c ****     g_ui.complete = complete;
 112:Core/Src/ui_lcd.c ****     g_ui.dirty = 1U;
 113:Core/Src/ui_lcd.c **** }
 114:Core/Src/ui_lcd.c **** 
 115:Core/Src/ui_lcd.c **** void UI_LCD_ShowRuntime(const Profil_Result_t *profiles,
 116:Core/Src/ui_lcd.c ****                         const TemperatureSnapshot_t *temps,
 117:Core/Src/ui_lcd.c ****                         const AFLCalcul_Output_t *targets,
 118:Core/Src/ui_lcd.c ****                         const FanStatus_t fans[FAN_CONTROL_CHANNEL_COUNT])
 119:Core/Src/ui_lcd.c **** {
 120:Core/Src/ui_lcd.c ****     if (g_ui.screen != UI_SCREEN_RUNTIME) {
 121:Core/Src/ui_lcd.c ****         g_ui.page_started_ms = HAL_GetTick();
 122:Core/Src/ui_lcd.c ****         g_ui.page_index = 0U;
 123:Core/Src/ui_lcd.c ****     }
 124:Core/Src/ui_lcd.c ****     g_ui.screen = UI_SCREEN_RUNTIME;
 125:Core/Src/ui_lcd.c ****     g_ui.profiles = profiles;
 126:Core/Src/ui_lcd.c ****     g_ui.temps = temps;
 127:Core/Src/ui_lcd.c ****     g_ui.targets = targets;
 128:Core/Src/ui_lcd.c ****     g_ui.fans = fans;
 129:Core/Src/ui_lcd.c ****     g_ui.dirty = 1U;
 130:Core/Src/ui_lcd.c **** }
 131:Core/Src/ui_lcd.c **** 
 132:Core/Src/ui_lcd.c **** void UI_LCD_ShowSafeState(uint8_t fail_mask)
 133:Core/Src/ui_lcd.c **** {
 134:Core/Src/ui_lcd.c ****     g_ui.screen = UI_SCREEN_SAFE_STATE;
 135:Core/Src/ui_lcd.c ****     g_ui.fail_mask = fail_mask;
 136:Core/Src/ui_lcd.c ****     g_ui.dirty = 1U;
 137:Core/Src/ui_lcd.c **** }
 138:Core/Src/ui_lcd.c **** 
 139:Core/Src/ui_lcd.c **** static void UI_LCD_ClearCache(void)
 140:Core/Src/ui_lcd.c **** {
 141:Core/Src/ui_lcd.c ****     uint8_t row;
 142:Core/Src/ui_lcd.c **** 
 143:Core/Src/ui_lcd.c ****     // Le cache evite de reecrire la meme ligne.
 144:Core/Src/ui_lcd.c ****     for (row = 0U; row < 4U; row++) {
 145:Core/Src/ui_lcd.c ****         memset(g_ui.cache[row], 0, sizeof(g_ui.cache[row]));
 146:Core/Src/ui_lcd.c ****     }
 147:Core/Src/ui_lcd.c **** }
ARM GAS  /var/folders/t9/y_chwk8j4cv2jjx6x9_h4twc0000gn/T//ccjMeHU7.s 			page 4


 148:Core/Src/ui_lcd.c **** 
 149:Core/Src/ui_lcd.c **** static void UI_LCD_WriteLine(uint8_t row, const char *text)
 150:Core/Src/ui_lcd.c **** {
 151:Core/Src/ui_lcd.c ****     char fixed[21];
 152:Core/Src/ui_lcd.c ****     size_t len;
 153:Core/Src/ui_lcd.c **** 
 154:Core/Src/ui_lcd.c ****     if ((row > 3U) || (text == NULL)) {
 155:Core/Src/ui_lcd.c ****         return;
 156:Core/Src/ui_lcd.c ****     }
 157:Core/Src/ui_lcd.c **** 
 158:Core/Src/ui_lcd.c ****     // Le LCD est 20 colonnes.
 159:Core/Src/ui_lcd.c ****     // On tronque ou on remplit avec des espaces.
 160:Core/Src/ui_lcd.c ****     memset(fixed, ' ', 20U);
 161:Core/Src/ui_lcd.c ****     fixed[20] = '\0';
 162:Core/Src/ui_lcd.c ****     len = strlen(text);
 163:Core/Src/ui_lcd.c ****     if (len > 20U) {
 164:Core/Src/ui_lcd.c ****         len = 20U;
 165:Core/Src/ui_lcd.c ****     }
 166:Core/Src/ui_lcd.c ****     memcpy(fixed, text, len);
 167:Core/Src/ui_lcd.c **** 
 168:Core/Src/ui_lcd.c ****     if (strncmp(g_ui.cache[row], fixed, 20U) != 0) {
 169:Core/Src/ui_lcd.c ****         LCD_WriteAt(0, row, fixed);
 170:Core/Src/ui_lcd.c ****         memcpy(g_ui.cache[row], fixed, sizeof(fixed));
 171:Core/Src/ui_lcd.c ****     }
 172:Core/Src/ui_lcd.c **** }
 173:Core/Src/ui_lcd.c **** 
 174:Core/Src/ui_lcd.c **** static void UI_LCD_Render(void)
 175:Core/Src/ui_lcd.c **** {
 176:Core/Src/ui_lcd.c ****     // Routeur principal d'ecran.
 177:Core/Src/ui_lcd.c ****     switch (g_ui.screen) {
 178:Core/Src/ui_lcd.c ****         case UI_SCREEN_PROFILES_READY:
 179:Core/Src/ui_lcd.c ****             UI_LCD_RenderProfileScreen("Profiles Ready");
 180:Core/Src/ui_lcd.c ****             break;
 181:Core/Src/ui_lcd.c ****         case UI_SCREEN_WAIT_CONFIRM:
 182:Core/Src/ui_lcd.c ****             UI_LCD_RenderProfileScreen("Press 'c' UART");
 183:Core/Src/ui_lcd.c ****             break;
 184:Core/Src/ui_lcd.c ****         case UI_SCREEN_STARTUP_TEST:
 185:Core/Src/ui_lcd.c ****             UI_LCD_RenderStartupTest();
 186:Core/Src/ui_lcd.c ****             break;
 187:Core/Src/ui_lcd.c ****         case UI_SCREEN_RUNTIME:
 188:Core/Src/ui_lcd.c ****             UI_LCD_RenderRuntime();
 189:Core/Src/ui_lcd.c ****             break;
 190:Core/Src/ui_lcd.c ****         case UI_SCREEN_SAFE_STATE:
 191:Core/Src/ui_lcd.c ****             UI_LCD_WriteLine(0U, "Startup Failure");
 192:Core/Src/ui_lcd.c ****             UI_LCD_WriteLine(1U, "Safe State Active");
 193:Core/Src/ui_lcd.c ****             {
 194:Core/Src/ui_lcd.c ****                 char line[21];
 195:Core/Src/ui_lcd.c ****                 snprintf(line, sizeof(line), "Fail mask: 0x%02X", g_ui.fail_mask);
 196:Core/Src/ui_lcd.c ****                 UI_LCD_WriteLine(2U, line);
 197:Core/Src/ui_lcd.c ****             }
 198:Core/Src/ui_lcd.c ****             UI_LCD_WriteLine(3U, "Reset required");
 199:Core/Src/ui_lcd.c ****             break;
 200:Core/Src/ui_lcd.c ****         case UI_SCREEN_NONE:
 201:Core/Src/ui_lcd.c ****         default:
 202:Core/Src/ui_lcd.c ****             UI_LCD_WriteLine(0U, "AFLC Initializing");
 203:Core/Src/ui_lcd.c ****             UI_LCD_WriteLine(1U, "");
 204:Core/Src/ui_lcd.c ****             UI_LCD_WriteLine(2U, "");
ARM GAS  /var/folders/t9/y_chwk8j4cv2jjx6x9_h4twc0000gn/T//ccjMeHU7.s 			page 5


 205:Core/Src/ui_lcd.c ****             UI_LCD_WriteLine(3U, "");
 206:Core/Src/ui_lcd.c ****             break;
 207:Core/Src/ui_lcd.c ****     }
 208:Core/Src/ui_lcd.c **** }
 209:Core/Src/ui_lcd.c **** 
 210:Core/Src/ui_lcd.c **** static void UI_LCD_RenderProfileScreen(const char *header)
 211:Core/Src/ui_lcd.c **** {
 212:Core/Src/ui_lcd.c ****     uint8_t page = UI_LCD_GetProfilePage();
 213:Core/Src/ui_lcd.c ****     uint8_t first_index = (uint8_t)(page * 2U);
 214:Core/Src/ui_lcd.c ****     uint8_t row;
 215:Core/Src/ui_lcd.c **** 
 216:Core/Src/ui_lcd.c ****     // Une page montre 2 ventilateurs.
 217:Core/Src/ui_lcd.c ****     UI_LCD_WriteLine(0U, header);
 218:Core/Src/ui_lcd.c **** 
 219:Core/Src/ui_lcd.c ****     for (row = 0U; row < 2U; row++) {
 220:Core/Src/ui_lcd.c ****         char line[21];
 221:Core/Src/ui_lcd.c ****         uint8_t fan_index = (uint8_t)(first_index + row);
 222:Core/Src/ui_lcd.c **** 
 223:Core/Src/ui_lcd.c ****         if ((g_ui.profiles != NULL) && (fan_index < PROFIL_FAN_COUNT)) {
 224:Core/Src/ui_lcd.c ****             snprintf(line,
 225:Core/Src/ui_lcd.c ****                      sizeof(line),
 226:Core/Src/ui_lcd.c ****                      "F%u %-6s %4ur",
 227:Core/Src/ui_lcd.c ****                      (unsigned int)(fan_index + 1U),
 228:Core/Src/ui_lcd.c ****                      Profil_GetName(g_ui.profiles->fans[fan_index].profile_id),
 229:Core/Src/ui_lcd.c ****                      (unsigned int)g_ui.profiles->fans[fan_index].nominal_rpm);
 230:Core/Src/ui_lcd.c ****         } else {
 231:Core/Src/ui_lcd.c ****             snprintf(line, sizeof(line), "F%u ----", (unsigned int)(fan_index + 1U));
 232:Core/Src/ui_lcd.c ****         }
 233:Core/Src/ui_lcd.c **** 
 234:Core/Src/ui_lcd.c ****         UI_LCD_WriteLine((uint8_t)(row + 1U), line);
 235:Core/Src/ui_lcd.c ****     }
 236:Core/Src/ui_lcd.c **** 
 237:Core/Src/ui_lcd.c ****     if (g_ui.screen == UI_SCREEN_WAIT_CONFIRM) {
 238:Core/Src/ui_lcd.c ****         UI_LCD_WriteLine(3U, "Waiting confirm...");
 239:Core/Src/ui_lcd.c ****     } else {
 240:Core/Src/ui_lcd.c ****         char footer[21];
 241:Core/Src/ui_lcd.c ****         snprintf(footer, sizeof(footer), "Page %u/2", (unsigned int)(page + 1U));
 242:Core/Src/ui_lcd.c ****         UI_LCD_WriteLine(3U, footer);
 243:Core/Src/ui_lcd.c ****     }
 244:Core/Src/ui_lcd.c **** }
 245:Core/Src/ui_lcd.c **** 
 246:Core/Src/ui_lcd.c **** static void UI_LCD_RenderStartupTest(void)
 247:Core/Src/ui_lcd.c **** {
 248:Core/Src/ui_lcd.c ****     uint8_t index;
 249:Core/Src/ui_lcd.c ****     char summary[21];
 250:Core/Src/ui_lcd.c **** 
 251:Core/Src/ui_lcd.c ****     // Deux premieres lignes : F1/F2.
 252:Core/Src/ui_lcd.c ****     // Derniere ligne : resume F3/F4.
 253:Core/Src/ui_lcd.c ****     UI_LCD_WriteLine(0U, g_ui.complete ? "Startup Test Done" : "Startup Test");
 254:Core/Src/ui_lcd.c **** 
 255:Core/Src/ui_lcd.c ****     for (index = 0U; index < 2U; index++) {
 256:Core/Src/ui_lcd.c ****         char line[21];
 257:Core/Src/ui_lcd.c ****         uint8_t fan_index = index;
 258:Core/Src/ui_lcd.c ****         char status = '-';
 259:Core/Src/ui_lcd.c **** 
 260:Core/Src/ui_lcd.c ****         if ((g_ui.fail_mask & (1U << fan_index)) != 0U) {
 261:Core/Src/ui_lcd.c ****             status = 'F';
ARM GAS  /var/folders/t9/y_chwk8j4cv2jjx6x9_h4twc0000gn/T//ccjMeHU7.s 			page 6


 262:Core/Src/ui_lcd.c ****         } else if ((g_ui.passed_mask & (1U << fan_index)) != 0U) {
 263:Core/Src/ui_lcd.c ****             status = 'P';
 264:Core/Src/ui_lcd.c ****         }
 265:Core/Src/ui_lcd.c **** 
 266:Core/Src/ui_lcd.c ****         snprintf(line, sizeof(line), "Fan%u Tach [%c]", (unsigned int)(fan_index + 1U), status);
 267:Core/Src/ui_lcd.c ****         UI_LCD_WriteLine((uint8_t)(index + 1U), line);
 268:Core/Src/ui_lcd.c ****     }
 269:Core/Src/ui_lcd.c **** 
 270:Core/Src/ui_lcd.c ****     snprintf(summary,
 271:Core/Src/ui_lcd.c ****              sizeof(summary),
 272:Core/Src/ui_lcd.c ****              "F3[%c] F4[%c]",
 273:Core/Src/ui_lcd.c ****              ((g_ui.fail_mask & (1U << 2U)) != 0U) ? 'F' : (((g_ui.passed_mask & (1U << 2U)) != 0U)
 274:Core/Src/ui_lcd.c ****              ((g_ui.fail_mask & (1U << 3U)) != 0U) ? 'F' : (((g_ui.passed_mask & (1U << 3U)) != 0U)
 275:Core/Src/ui_lcd.c ****     UI_LCD_WriteLine(3U, summary);
 276:Core/Src/ui_lcd.c **** }
 277:Core/Src/ui_lcd.c **** 
 278:Core/Src/ui_lcd.c **** static void UI_LCD_RenderRuntime(void)
 279:Core/Src/ui_lcd.c **** {
 280:Core/Src/ui_lcd.c ****     uint8_t page = UI_LCD_GetProfilePage();
 281:Core/Src/ui_lcd.c ****     uint8_t first_index = (uint8_t)(page * 2U);
 282:Core/Src/ui_lcd.c ****     uint8_t row;
 283:Core/Src/ui_lcd.c **** 
 284:Core/Src/ui_lcd.c ****     // Pour chaque fan :
 285:Core/Src/ui_lcd.c ****     // ligne 1/2 = RPM reel vs cible
 286:Core/Src/ui_lcd.c ****     // ligne 3/4 = temperature et duty
 287:Core/Src/ui_lcd.c ****     for (row = 0U; row < 2U; row++) {
 288:Core/Src/ui_lcd.c ****         char line[21];
 289:Core/Src/ui_lcd.c ****         uint8_t fan_index = (uint8_t)(first_index + row);
 290:Core/Src/ui_lcd.c **** 
 291:Core/Src/ui_lcd.c ****         if ((g_ui.profiles != NULL) && (g_ui.temps != NULL) && (g_ui.targets != NULL) && (g_ui.fans
 292:Core/Src/ui_lcd.c ****             snprintf(line,
 293:Core/Src/ui_lcd.c ****                      sizeof(line),
 294:Core/Src/ui_lcd.c ****                      "F%u %s %u/%u",
 295:Core/Src/ui_lcd.c ****                      (unsigned int)(fan_index + 1U),
 296:Core/Src/ui_lcd.c ****                      Profil_GetName(g_ui.profiles->fans[fan_index].profile_id),
 297:Core/Src/ui_lcd.c ****                      (unsigned int)g_ui.fans[fan_index].rpm,
 298:Core/Src/ui_lcd.c ****                      (unsigned int)g_ui.targets->target_rpm[fan_index]);
 299:Core/Src/ui_lcd.c ****             UI_LCD_WriteLine(row, line);
 300:Core/Src/ui_lcd.c **** 
 301:Core/Src/ui_lcd.c ****             snprintf(line,
 302:Core/Src/ui_lcd.c ****                      sizeof(line),
 303:Core/Src/ui_lcd.c ****                      "T%u=%uC D=%u%%",
 304:Core/Src/ui_lcd.c ****                      (unsigned int)(fan_index + 1U),
 305:Core/Src/ui_lcd.c ****                      (unsigned int)g_ui.temps->values_c[fan_index],
 306:Core/Src/ui_lcd.c ****                      (unsigned int)g_ui.fans[fan_index].percent);
 307:Core/Src/ui_lcd.c ****             UI_LCD_WriteLine((uint8_t)(row + 2U), line);
 308:Core/Src/ui_lcd.c ****         }
 309:Core/Src/ui_lcd.c ****     }
 310:Core/Src/ui_lcd.c **** }
 311:Core/Src/ui_lcd.c **** 
 312:Core/Src/ui_lcd.c **** static uint8_t UI_LCD_GetProfilePage(void)
 313:Core/Src/ui_lcd.c **** {
  26              		.loc 1 313 1 view -0
  27              		.cfi_startproc
  28              		@ args = 0, pretend = 0, frame = 0
  29              		@ frame_needed = 0, uses_anonymous_args = 0
  30              		@ link register save eliminated.
ARM GAS  /var/folders/t9/y_chwk8j4cv2jjx6x9_h4twc0000gn/T//ccjMeHU7.s 			page 7


 314:Core/Src/ui_lcd.c ****     return g_ui.page_index;
  31              		.loc 1 314 5 view .LVU1
 315:Core/Src/ui_lcd.c **** }
  32              		.loc 1 315 1 is_stmt 0 view .LVU2
  33 0000 014B     		ldr	r3, .L2
  34 0002 187B     		ldrb	r0, [r3, #12]	@ zero_extendqisi2
  35 0004 7047     		bx	lr
  36              	.L3:
  37 0006 00BF     		.align	2
  38              	.L2:
  39 0008 00000000 		.word	g_ui
  40              		.cfi_endproc
  41              	.LFE81:
  43              		.section	.text.UI_LCD_ClearCache,"ax",%progbits
  44              		.align	1
  45              		.syntax unified
  46              		.thumb
  47              		.thumb_func
  49              	UI_LCD_ClearCache:
  50              	.LFB75:
 140:Core/Src/ui_lcd.c ****     uint8_t row;
  51              		.loc 1 140 1 is_stmt 1 view -0
  52              		.cfi_startproc
  53              		@ args = 0, pretend = 0, frame = 0
  54              		@ frame_needed = 0, uses_anonymous_args = 0
  55              		@ link register save eliminated.
 141:Core/Src/ui_lcd.c **** 
  56              		.loc 1 141 5 view .LVU4
 144:Core/Src/ui_lcd.c ****         memset(g_ui.cache[row], 0, sizeof(g_ui.cache[row]));
  57              		.loc 1 144 5 view .LVU5
  58              	.LVL0:
 144:Core/Src/ui_lcd.c ****         memset(g_ui.cache[row], 0, sizeof(g_ui.cache[row]));
  59              		.loc 1 144 14 is_stmt 0 view .LVU6
  60 0000 0022     		movs	r2, #0
 144:Core/Src/ui_lcd.c ****         memset(g_ui.cache[row], 0, sizeof(g_ui.cache[row]));
  61              		.loc 1 144 5 view .LVU7
  62 0002 0FE0     		b	.L5
  63              	.LVL1:
  64              	.L6:
 145:Core/Src/ui_lcd.c ****     }
  65              		.loc 1 145 9 is_stmt 1 view .LVU8
 145:Core/Src/ui_lcd.c ****     }
  66              		.loc 1 145 26 is_stmt 0 view .LVU9
  67 0004 02EB4203 		add	r3, r2, r2, lsl #1
  68 0008 C3EBC303 		rsb	r3, r3, r3, lsl #3
  69 000c 2033     		adds	r3, r3, #32
  70 000e 0749     		ldr	r1, .L7
  71 0010 0B44     		add	r3, r3, r1
 145:Core/Src/ui_lcd.c ****     }
  72              		.loc 1 145 9 view .LVU10
  73 0012 0021     		movs	r1, #0
  74 0014 5960     		str	r1, [r3, #4]	@ unaligned
  75 0016 9960     		str	r1, [r3, #8]	@ unaligned
  76 0018 D960     		str	r1, [r3, #12]	@ unaligned
  77 001a 1961     		str	r1, [r3, #16]	@ unaligned
  78 001c 5961     		str	r1, [r3, #20]	@ unaligned
  79 001e 1976     		strb	r1, [r3, #24]
ARM GAS  /var/folders/t9/y_chwk8j4cv2jjx6x9_h4twc0000gn/T//ccjMeHU7.s 			page 8


 144:Core/Src/ui_lcd.c ****         memset(g_ui.cache[row], 0, sizeof(g_ui.cache[row]));
  80              		.loc 1 144 33 is_stmt 1 discriminator 3 view .LVU11
  81 0020 0132     		adds	r2, r2, #1
  82              	.LVL2:
 144:Core/Src/ui_lcd.c ****         memset(g_ui.cache[row], 0, sizeof(g_ui.cache[row]));
  83              		.loc 1 144 33 is_stmt 0 discriminator 3 view .LVU12
  84 0022 D2B2     		uxtb	r2, r2
  85              	.LVL3:
  86              	.L5:
 144:Core/Src/ui_lcd.c ****         memset(g_ui.cache[row], 0, sizeof(g_ui.cache[row]));
  87              		.loc 1 144 24 is_stmt 1 discriminator 1 view .LVU13
  88 0024 032A     		cmp	r2, #3
  89 0026 EDD9     		bls	.L6
 147:Core/Src/ui_lcd.c **** 
  90              		.loc 1 147 1 is_stmt 0 view .LVU14
  91 0028 7047     		bx	lr
  92              	.L8:
  93 002a 00BF     		.align	2
  94              	.L7:
  95 002c 00000000 		.word	g_ui
  96              		.cfi_endproc
  97              	.LFE75:
  99              		.section	.text.UI_LCD_WriteLine,"ax",%progbits
 100              		.align	1
 101              		.syntax unified
 102              		.thumb
 103              		.thumb_func
 105              	UI_LCD_WriteLine:
 106              	.LVL4:
 107              	.LFB76:
 150:Core/Src/ui_lcd.c ****     char fixed[21];
 108              		.loc 1 150 1 is_stmt 1 view -0
 109              		.cfi_startproc
 110              		@ args = 0, pretend = 0, frame = 24
 111              		@ frame_needed = 0, uses_anonymous_args = 0
 151:Core/Src/ui_lcd.c ****     size_t len;
 112              		.loc 1 151 5 view .LVU16
 152:Core/Src/ui_lcd.c **** 
 113              		.loc 1 152 5 view .LVU17
 154:Core/Src/ui_lcd.c ****         return;
 114              		.loc 1 154 5 view .LVU18
 154:Core/Src/ui_lcd.c ****         return;
 115              		.loc 1 154 8 is_stmt 0 view .LVU19
 116 0000 0328     		cmp	r0, #3
 117 0002 45D8     		bhi	.L17
 150:Core/Src/ui_lcd.c ****     char fixed[21];
 118              		.loc 1 150 1 view .LVU20
 119 0004 30B5     		push	{r4, r5, lr}
 120              	.LCFI0:
 121              		.cfi_def_cfa_offset 12
 122              		.cfi_offset 4, -12
 123              		.cfi_offset 5, -8
 124              		.cfi_offset 14, -4
 125 0006 87B0     		sub	sp, sp, #28
 126              	.LCFI1:
 127              		.cfi_def_cfa_offset 40
 128 0008 0446     		mov	r4, r0
ARM GAS  /var/folders/t9/y_chwk8j4cv2jjx6x9_h4twc0000gn/T//ccjMeHU7.s 			page 9


 129 000a 0D46     		mov	r5, r1
 154:Core/Src/ui_lcd.c ****         return;
 130              		.loc 1 154 20 discriminator 1 view .LVU21
 131 000c 0846     		mov	r0, r1
 132              	.LVL5:
 154:Core/Src/ui_lcd.c ****         return;
 133              		.loc 1 154 20 discriminator 1 view .LVU22
 134 000e 01B3     		cbz	r1, .L9
 160:Core/Src/ui_lcd.c ****     fixed[20] = '\0';
 135              		.loc 1 160 5 is_stmt 1 view .LVU23
 136 0010 4FF02033 		mov	r3, #538976288
 137 0014 0093     		str	r3, [sp]
 138 0016 0193     		str	r3, [sp, #4]
 139 0018 0293     		str	r3, [sp, #8]
 140 001a 0393     		str	r3, [sp, #12]
 141 001c 0493     		str	r3, [sp, #16]
 161:Core/Src/ui_lcd.c ****     len = strlen(text);
 142              		.loc 1 161 5 view .LVU24
 161:Core/Src/ui_lcd.c ****     len = strlen(text);
 143              		.loc 1 161 15 is_stmt 0 view .LVU25
 144 001e 0023     		movs	r3, #0
 145 0020 8DF81430 		strb	r3, [sp, #20]
 162:Core/Src/ui_lcd.c ****     if (len > 20U) {
 146              		.loc 1 162 5 is_stmt 1 view .LVU26
 162:Core/Src/ui_lcd.c ****     if (len > 20U) {
 147              		.loc 1 162 11 is_stmt 0 view .LVU27
 148 0024 FFF7FEFF 		bl	strlen
 149              	.LVL6:
 162:Core/Src/ui_lcd.c ****     if (len > 20U) {
 150              		.loc 1 162 11 view .LVU28
 151 0028 0246     		mov	r2, r0
 152              	.LVL7:
 163:Core/Src/ui_lcd.c ****         len = 20U;
 153              		.loc 1 163 5 is_stmt 1 view .LVU29
 163:Core/Src/ui_lcd.c ****         len = 20U;
 154              		.loc 1 163 8 is_stmt 0 view .LVU30
 155 002a 1428     		cmp	r0, #20
 156 002c 00D9     		bls	.L13
 164:Core/Src/ui_lcd.c ****     }
 157              		.loc 1 164 13 view .LVU31
 158 002e 1422     		movs	r2, #20
 159              	.L13:
 160              	.LVL8:
 166:Core/Src/ui_lcd.c **** 
 161              		.loc 1 166 5 is_stmt 1 view .LVU32
 162 0030 2946     		mov	r1, r5
 163 0032 6846     		mov	r0, sp
 164 0034 FFF7FEFF 		bl	memcpy
 165              	.LVL9:
 168:Core/Src/ui_lcd.c ****         LCD_WriteAt(0, row, fixed);
 166              		.loc 1 168 5 view .LVU33
 168:Core/Src/ui_lcd.c ****         LCD_WriteAt(0, row, fixed);
 167              		.loc 1 168 27 is_stmt 0 view .LVU34
 168 0038 04EB4400 		add	r0, r4, r4, lsl #1
 169 003c C0EBC000 		rsb	r0, r0, r0, lsl #3
 170 0040 2030     		adds	r0, r0, #32
 171 0042 144B     		ldr	r3, .L21
ARM GAS  /var/folders/t9/y_chwk8j4cv2jjx6x9_h4twc0000gn/T//ccjMeHU7.s 			page 10


 172 0044 1844     		add	r0, r0, r3
 168:Core/Src/ui_lcd.c ****         LCD_WriteAt(0, row, fixed);
 173              		.loc 1 168 9 view .LVU35
 174 0046 1422     		movs	r2, #20
 175 0048 6946     		mov	r1, sp
 176 004a 0430     		adds	r0, r0, #4
 177 004c FFF7FEFF 		bl	strncmp
 178              	.LVL10:
 168:Core/Src/ui_lcd.c ****         LCD_WriteAt(0, row, fixed);
 179              		.loc 1 168 8 discriminator 1 view .LVU36
 180 0050 08B9     		cbnz	r0, .L20
 181              	.LVL11:
 182              	.L9:
 172:Core/Src/ui_lcd.c **** 
 183              		.loc 1 172 1 view .LVU37
 184 0052 07B0     		add	sp, sp, #28
 185              	.LCFI2:
 186              		.cfi_remember_state
 187              		.cfi_def_cfa_offset 12
 188              		@ sp needed
 189 0054 30BD     		pop	{r4, r5, pc}
 190              	.LVL12:
 191              	.L20:
 192              	.LCFI3:
 193              		.cfi_restore_state
 169:Core/Src/ui_lcd.c ****         memcpy(g_ui.cache[row], fixed, sizeof(fixed));
 194              		.loc 1 169 9 is_stmt 1 view .LVU38
 195 0056 6A46     		mov	r2, sp
 196 0058 2146     		mov	r1, r4
 197 005a 0020     		movs	r0, #0
 198 005c FFF7FEFF 		bl	LCD_WriteAt
 199              	.LVL13:
 170:Core/Src/ui_lcd.c ****     }
 200              		.loc 1 170 9 view .LVU39
 201 0060 04EB4404 		add	r4, r4, r4, lsl #1
 202 0064 C4EBC404 		rsb	r4, r4, r4, lsl #3
 203 0068 0A4B     		ldr	r3, .L21
 204 006a 03EB040C 		add	ip, r3, r4
 205 006e 6C46     		mov	r4, sp
 206 0070 0FCC     		ldmia	r4!, {r0, r1, r2, r3}
 207 0072 CCF82400 		str	r0, [ip, #36]	@ unaligned
 208 0076 CCF82810 		str	r1, [ip, #40]	@ unaligned
 209 007a CCF82C20 		str	r2, [ip, #44]	@ unaligned
 210 007e CCF83030 		str	r3, [ip, #48]	@ unaligned
 211 0082 2068     		ldr	r0, [r4]
 212 0084 CCF83400 		str	r0, [ip, #52]	@ unaligned
 213 0088 2379     		ldrb	r3, [r4, #4]	@ zero_extendqisi2
 214 008a 8CF83830 		strb	r3, [ip, #56]
 215 008e E0E7     		b	.L9
 216              	.LVL14:
 217              	.L17:
 218              	.LCFI4:
 219              		.cfi_def_cfa_offset 0
 220              		.cfi_restore 4
 221              		.cfi_restore 5
 222              		.cfi_restore 14
 170:Core/Src/ui_lcd.c ****     }
ARM GAS  /var/folders/t9/y_chwk8j4cv2jjx6x9_h4twc0000gn/T//ccjMeHU7.s 			page 11


 223              		.loc 1 170 9 is_stmt 0 view .LVU40
 224 0090 7047     		bx	lr
 225              	.L22:
 226 0092 00BF     		.align	2
 227              	.L21:
 228 0094 00000000 		.word	g_ui
 229              		.cfi_endproc
 230              	.LFE76:
 232              		.section	.rodata.UI_LCD_RenderProfileScreen.str1.4,"aMS",%progbits,1
 233              		.align	2
 234              	.LC0:
 235 0000 46257520 		.ascii	"F%u %-6s %4ur\000"
 235      252D3673 
 235      20253475 
 235      7200
 236 000e 0000     		.align	2
 237              	.LC1:
 238 0010 46257520 		.ascii	"F%u ----\000"
 238      2D2D2D2D 
 238      00
 239 0019 000000   		.align	2
 240              	.LC2:
 241 001c 57616974 		.ascii	"Waiting confirm...\000"
 241      696E6720 
 241      636F6E66 
 241      69726D2E 
 241      2E2E00
 242 002f 00       		.align	2
 243              	.LC3:
 244 0030 50616765 		.ascii	"Page %u/2\000"
 244      2025752F 
 244      3200
 245              		.section	.text.UI_LCD_RenderProfileScreen,"ax",%progbits
 246              		.align	1
 247              		.syntax unified
 248              		.thumb
 249              		.thumb_func
 251              	UI_LCD_RenderProfileScreen:
 252              	.LVL15:
 253              	.LFB78:
 211:Core/Src/ui_lcd.c ****     uint8_t page = UI_LCD_GetProfilePage();
 254              		.loc 1 211 1 is_stmt 1 view -0
 255              		.cfi_startproc
 256              		@ args = 0, pretend = 0, frame = 24
 257              		@ frame_needed = 0, uses_anonymous_args = 0
 211:Core/Src/ui_lcd.c ****     uint8_t page = UI_LCD_GetProfilePage();
 258              		.loc 1 211 1 is_stmt 0 view .LVU42
 259 0000 2DE9F041 		push	{r4, r5, r6, r7, r8, lr}
 260              	.LCFI5:
 261              		.cfi_def_cfa_offset 24
 262              		.cfi_offset 4, -24
 263              		.cfi_offset 5, -20
 264              		.cfi_offset 6, -16
 265              		.cfi_offset 7, -12
 266              		.cfi_offset 8, -8
 267              		.cfi_offset 14, -4
 268 0004 88B0     		sub	sp, sp, #32
ARM GAS  /var/folders/t9/y_chwk8j4cv2jjx6x9_h4twc0000gn/T//ccjMeHU7.s 			page 12


 269              	.LCFI6:
 270              		.cfi_def_cfa_offset 56
 271 0006 0446     		mov	r4, r0
 212:Core/Src/ui_lcd.c ****     uint8_t first_index = (uint8_t)(page * 2U);
 272              		.loc 1 212 5 is_stmt 1 view .LVU43
 212:Core/Src/ui_lcd.c ****     uint8_t first_index = (uint8_t)(page * 2U);
 273              		.loc 1 212 20 is_stmt 0 view .LVU44
 274 0008 FFF7FEFF 		bl	UI_LCD_GetProfilePage
 275              	.LVL16:
 212:Core/Src/ui_lcd.c ****     uint8_t first_index = (uint8_t)(page * 2U);
 276              		.loc 1 212 20 view .LVU45
 277 000c 8046     		mov	r8, r0
 213:Core/Src/ui_lcd.c ****     uint8_t row;
 278              		.loc 1 213 5 is_stmt 1 view .LVU46
 213:Core/Src/ui_lcd.c ****     uint8_t row;
 279              		.loc 1 213 13 is_stmt 0 view .LVU47
 280 000e 4600     		lsls	r6, r0, #1
 281 0010 F6B2     		uxtb	r6, r6
 282              	.LVL17:
 214:Core/Src/ui_lcd.c **** 
 283              		.loc 1 214 5 is_stmt 1 view .LVU48
 217:Core/Src/ui_lcd.c **** 
 284              		.loc 1 217 5 view .LVU49
 285 0012 2146     		mov	r1, r4
 286 0014 0020     		movs	r0, #0
 287 0016 FFF7FEFF 		bl	UI_LCD_WriteLine
 288              	.LVL18:
 219:Core/Src/ui_lcd.c ****         char line[21];
 289              		.loc 1 219 5 view .LVU50
 219:Core/Src/ui_lcd.c ****         char line[21];
 290              		.loc 1 219 14 is_stmt 0 view .LVU51
 291 001a 0024     		movs	r4, #0
 292              	.LVL19:
 219:Core/Src/ui_lcd.c ****         char line[21];
 293              		.loc 1 219 5 view .LVU52
 294 001c 0BE0     		b	.L24
 295              	.LVL20:
 296              	.L25:
 297              	.LBB2:
 231:Core/Src/ui_lcd.c ****         }
 298              		.loc 1 231 13 is_stmt 1 view .LVU53
 299 001e 6B1C     		adds	r3, r5, #1
 300 0020 214A     		ldr	r2, .L33
 301 0022 1521     		movs	r1, #21
 302 0024 02A8     		add	r0, sp, #8
 303 0026 FFF7FEFF 		bl	snprintf
 304              	.LVL21:
 305              	.L26:
 234:Core/Src/ui_lcd.c ****     }
 306              		.loc 1 234 9 view .LVU54
 234:Core/Src/ui_lcd.c ****     }
 307              		.loc 1 234 26 is_stmt 0 view .LVU55
 308 002a 0134     		adds	r4, r4, #1
 309              	.LVL22:
 234:Core/Src/ui_lcd.c ****     }
 310              		.loc 1 234 26 view .LVU56
 311 002c E4B2     		uxtb	r4, r4
ARM GAS  /var/folders/t9/y_chwk8j4cv2jjx6x9_h4twc0000gn/T//ccjMeHU7.s 			page 13


 312              	.LVL23:
 234:Core/Src/ui_lcd.c ****     }
 313              		.loc 1 234 9 view .LVU57
 314 002e 02A9     		add	r1, sp, #8
 315 0030 2046     		mov	r0, r4
 316 0032 FFF7FEFF 		bl	UI_LCD_WriteLine
 317              	.LVL24:
 318              	.LBE2:
 219:Core/Src/ui_lcd.c ****         char line[21];
 319              		.loc 1 219 33 is_stmt 1 discriminator 2 view .LVU58
 320              	.L24:
 219:Core/Src/ui_lcd.c ****         char line[21];
 321              		.loc 1 219 24 discriminator 1 view .LVU59
 322 0036 012C     		cmp	r4, #1
 323 0038 1ED8     		bhi	.L31
 324              	.LBB3:
 220:Core/Src/ui_lcd.c ****         uint8_t fan_index = (uint8_t)(first_index + row);
 325              		.loc 1 220 9 view .LVU60
 221:Core/Src/ui_lcd.c **** 
 326              		.loc 1 221 9 view .LVU61
 221:Core/Src/ui_lcd.c **** 
 327              		.loc 1 221 17 is_stmt 0 view .LVU62
 328 003a A519     		adds	r5, r4, r6
 329 003c EDB2     		uxtb	r5, r5
 330              	.LVL25:
 223:Core/Src/ui_lcd.c ****             snprintf(line,
 331              		.loc 1 223 9 is_stmt 1 view .LVU63
 223:Core/Src/ui_lcd.c ****             snprintf(line,
 332              		.loc 1 223 18 is_stmt 0 view .LVU64
 333 003e 1B4B     		ldr	r3, .L33+4
 334 0040 5A69     		ldr	r2, [r3, #20]
 223:Core/Src/ui_lcd.c ****             snprintf(line,
 335              		.loc 1 223 12 view .LVU65
 336 0042 002A     		cmp	r2, #0
 337 0044 EBD0     		beq	.L25
 223:Core/Src/ui_lcd.c ****             snprintf(line,
 338              		.loc 1 223 37 discriminator 1 view .LVU66
 339 0046 032D     		cmp	r5, #3
 340 0048 E9D8     		bhi	.L25
 224:Core/Src/ui_lcd.c ****                      sizeof(line),
 341              		.loc 1 224 13 is_stmt 1 view .LVU67
 228:Core/Src/ui_lcd.c ****                      (unsigned int)g_ui.profiles->fans[fan_index].nominal_rpm);
 342              		.loc 1 228 67 is_stmt 0 view .LVU68
 343 004a EF00     		lsls	r7, r5, #3
 344 004c C5EBC503 		rsb	r3, r5, r5, lsl #3
 345 0050 02EB4302 		add	r2, r2, r3, lsl #1
 224:Core/Src/ui_lcd.c ****                      sizeof(line),
 346              		.loc 1 224 13 view .LVU69
 347 0054 9078     		ldrb	r0, [r2, #2]	@ zero_extendqisi2
 348 0056 FFF7FEFF 		bl	Profil_GetName
 349              	.LVL26:
 229:Core/Src/ui_lcd.c ****         } else {
 350              		.loc 1 229 40 view .LVU70
 351 005a 144B     		ldr	r3, .L33+4
 352 005c 5B69     		ldr	r3, [r3, #20]
 229:Core/Src/ui_lcd.c ****         } else {
 353              		.loc 1 229 66 view .LVU71
ARM GAS  /var/folders/t9/y_chwk8j4cv2jjx6x9_h4twc0000gn/T//ccjMeHU7.s 			page 14


 354 005e 7A1B     		subs	r2, r7, r5
 355 0060 03EB4203 		add	r3, r3, r2, lsl #1
 356 0064 DB88     		ldrh	r3, [r3, #6]
 224:Core/Src/ui_lcd.c ****                      sizeof(line),
 357              		.loc 1 224 13 view .LVU72
 358 0066 0193     		str	r3, [sp, #4]
 359 0068 0090     		str	r0, [sp]
 360 006a 6B1C     		adds	r3, r5, #1
 361 006c 104A     		ldr	r2, .L33+8
 362 006e 1521     		movs	r1, #21
 363 0070 02A8     		add	r0, sp, #8
 364 0072 FFF7FEFF 		bl	snprintf
 365              	.LVL27:
 366 0076 D8E7     		b	.L26
 367              	.LVL28:
 368              	.L31:
 224:Core/Src/ui_lcd.c ****                      sizeof(line),
 369              		.loc 1 224 13 view .LVU73
 370              	.LBE3:
 237:Core/Src/ui_lcd.c ****         UI_LCD_WriteLine(3U, "Waiting confirm...");
 371              		.loc 1 237 5 is_stmt 1 view .LVU74
 237:Core/Src/ui_lcd.c ****         UI_LCD_WriteLine(3U, "Waiting confirm...");
 372              		.loc 1 237 13 is_stmt 0 view .LVU75
 373 0078 0C4B     		ldr	r3, .L33+4
 374 007a 1B78     		ldrb	r3, [r3]	@ zero_extendqisi2
 237:Core/Src/ui_lcd.c ****         UI_LCD_WriteLine(3U, "Waiting confirm...");
 375              		.loc 1 237 8 view .LVU76
 376 007c 022B     		cmp	r3, #2
 377 007e 0ED0     		beq	.L32
 378              	.LBB4:
 240:Core/Src/ui_lcd.c ****         snprintf(footer, sizeof(footer), "Page %u/2", (unsigned int)(page + 1U));
 379              		.loc 1 240 9 is_stmt 1 view .LVU77
 241:Core/Src/ui_lcd.c ****         UI_LCD_WriteLine(3U, footer);
 380              		.loc 1 241 9 view .LVU78
 381 0080 02AC     		add	r4, sp, #8
 382              	.LVL29:
 241:Core/Src/ui_lcd.c ****         UI_LCD_WriteLine(3U, footer);
 383              		.loc 1 241 9 is_stmt 0 view .LVU79
 384 0082 4346     		mov	r3, r8
 385 0084 0133     		adds	r3, r3, #1
 386 0086 0B4A     		ldr	r2, .L33+12
 387 0088 1521     		movs	r1, #21
 388 008a 2046     		mov	r0, r4
 389 008c FFF7FEFF 		bl	snprintf
 390              	.LVL30:
 242:Core/Src/ui_lcd.c ****     }
 391              		.loc 1 242 9 is_stmt 1 view .LVU80
 392 0090 2146     		mov	r1, r4
 393 0092 0320     		movs	r0, #3
 394 0094 FFF7FEFF 		bl	UI_LCD_WriteLine
 395              	.LVL31:
 396              	.L23:
 397              	.LBE4:
 244:Core/Src/ui_lcd.c **** 
 398              		.loc 1 244 1 is_stmt 0 view .LVU81
 399 0098 08B0     		add	sp, sp, #32
 400              	.LCFI7:
ARM GAS  /var/folders/t9/y_chwk8j4cv2jjx6x9_h4twc0000gn/T//ccjMeHU7.s 			page 15


 401              		.cfi_remember_state
 402              		.cfi_def_cfa_offset 24
 403              		@ sp needed
 404 009a BDE8F081 		pop	{r4, r5, r6, r7, r8, pc}
 405              	.LVL32:
 406              	.L32:
 407              	.LCFI8:
 408              		.cfi_restore_state
 238:Core/Src/ui_lcd.c ****     } else {
 409              		.loc 1 238 9 is_stmt 1 view .LVU82
 410 009e 0649     		ldr	r1, .L33+16
 411 00a0 0320     		movs	r0, #3
 412 00a2 FFF7FEFF 		bl	UI_LCD_WriteLine
 413              	.LVL33:
 414 00a6 F7E7     		b	.L23
 415              	.L34:
 416              		.align	2
 417              	.L33:
 418 00a8 10000000 		.word	.LC1
 419 00ac 00000000 		.word	g_ui
 420 00b0 00000000 		.word	.LC0
 421 00b4 30000000 		.word	.LC3
 422 00b8 1C000000 		.word	.LC2
 423              		.cfi_endproc
 424              	.LFE78:
 426              		.section	.rodata.UI_LCD_RenderStartupTest.str1.4,"aMS",%progbits,1
 427              		.align	2
 428              	.LC4:
 429 0000 53746172 		.ascii	"Startup Test Done\000"
 429      74757020 
 429      54657374 
 429      20446F6E 
 429      6500
 430 0012 0000     		.align	2
 431              	.LC5:
 432 0014 53746172 		.ascii	"Startup Test\000"
 432      74757020 
 432      54657374 
 432      00
 433 0021 000000   		.align	2
 434              	.LC6:
 435 0024 46616E25 		.ascii	"Fan%u Tach [%c]\000"
 435      75205461 
 435      6368205B 
 435      25635D00 
 436              		.align	2
 437              	.LC7:
 438 0034 46335B25 		.ascii	"F3[%c] F4[%c]\000"
 438      635D2046 
 438      345B2563 
 438      5D00
 439              		.section	.text.UI_LCD_RenderStartupTest,"ax",%progbits
 440              		.align	1
 441              		.syntax unified
 442              		.thumb
 443              		.thumb_func
 445              	UI_LCD_RenderStartupTest:
ARM GAS  /var/folders/t9/y_chwk8j4cv2jjx6x9_h4twc0000gn/T//ccjMeHU7.s 			page 16


 446              	.LFB79:
 247:Core/Src/ui_lcd.c ****     uint8_t index;
 447              		.loc 1 247 1 view -0
 448              		.cfi_startproc
 449              		@ args = 0, pretend = 0, frame = 48
 450              		@ frame_needed = 0, uses_anonymous_args = 0
 451 0000 30B5     		push	{r4, r5, lr}
 452              	.LCFI9:
 453              		.cfi_def_cfa_offset 12
 454              		.cfi_offset 4, -12
 455              		.cfi_offset 5, -8
 456              		.cfi_offset 14, -4
 457 0002 8FB0     		sub	sp, sp, #60
 458              	.LCFI10:
 459              		.cfi_def_cfa_offset 72
 248:Core/Src/ui_lcd.c ****     char summary[21];
 460              		.loc 1 248 5 view .LVU84
 249:Core/Src/ui_lcd.c **** 
 461              		.loc 1 249 5 view .LVU85
 253:Core/Src/ui_lcd.c **** 
 462              		.loc 1 253 5 view .LVU86
 253:Core/Src/ui_lcd.c **** 
 463              		.loc 1 253 30 is_stmt 0 view .LVU87
 464 0004 294B     		ldr	r3, .L51
 465 0006 1B7C     		ldrb	r3, [r3, #16]	@ zero_extendqisi2
 253:Core/Src/ui_lcd.c **** 
 466              		.loc 1 253 5 view .LVU88
 467 0008 2BB1     		cbz	r3, .L42
 253:Core/Src/ui_lcd.c **** 
 468              		.loc 1 253 5 discriminator 1 view .LVU89
 469 000a 2949     		ldr	r1, .L51+4
 470              	.L36:
 253:Core/Src/ui_lcd.c **** 
 471              		.loc 1 253 5 discriminator 4 view .LVU90
 472 000c 0020     		movs	r0, #0
 473 000e FFF7FEFF 		bl	UI_LCD_WriteLine
 474              	.LVL34:
 255:Core/Src/ui_lcd.c ****         char line[21];
 475              		.loc 1 255 5 is_stmt 1 view .LVU91
 255:Core/Src/ui_lcd.c ****         char line[21];
 476              		.loc 1 255 16 is_stmt 0 view .LVU92
 477 0012 0024     		movs	r4, #0
 255:Core/Src/ui_lcd.c ****         char line[21];
 478              		.loc 1 255 5 view .LVU93
 479 0014 10E0     		b	.L37
 480              	.LVL35:
 481              	.L42:
 253:Core/Src/ui_lcd.c **** 
 482              		.loc 1 253 5 discriminator 2 view .LVU94
 483 0016 2749     		ldr	r1, .L51+8
 484 0018 F8E7     		b	.L36
 485              	.LVL36:
 486              	.L43:
 487              	.LBB5:
 261:Core/Src/ui_lcd.c ****         } else if ((g_ui.passed_mask & (1U << fan_index)) != 0U) {
 488              		.loc 1 261 20 view .LVU95
 489 001a 4623     		movs	r3, #70
ARM GAS  /var/folders/t9/y_chwk8j4cv2jjx6x9_h4twc0000gn/T//ccjMeHU7.s 			page 17


 490              	.L38:
 491              	.LVL37:
 266:Core/Src/ui_lcd.c ****         UI_LCD_WriteLine((uint8_t)(index + 1U), line);
 492              		.loc 1 266 9 is_stmt 1 view .LVU96
 493 001c 0134     		adds	r4, r4, #1
 494              	.LVL38:
 266:Core/Src/ui_lcd.c ****         UI_LCD_WriteLine((uint8_t)(index + 1U), line);
 495              		.loc 1 266 9 is_stmt 0 view .LVU97
 496 001e 02AD     		add	r5, sp, #8
 497 0020 0093     		str	r3, [sp]
 498 0022 2346     		mov	r3, r4
 499              	.LVL39:
 266:Core/Src/ui_lcd.c ****         UI_LCD_WriteLine((uint8_t)(index + 1U), line);
 500              		.loc 1 266 9 view .LVU98
 501 0024 244A     		ldr	r2, .L51+12
 502 0026 1521     		movs	r1, #21
 503 0028 2846     		mov	r0, r5
 504 002a FFF7FEFF 		bl	snprintf
 505              	.LVL40:
 267:Core/Src/ui_lcd.c ****     }
 506              		.loc 1 267 9 is_stmt 1 view .LVU99
 267:Core/Src/ui_lcd.c ****     }
 507              		.loc 1 267 26 is_stmt 0 view .LVU100
 508 002e E4B2     		uxtb	r4, r4
 509              	.LVL41:
 267:Core/Src/ui_lcd.c ****     }
 510              		.loc 1 267 9 view .LVU101
 511 0030 2946     		mov	r1, r5
 512 0032 2046     		mov	r0, r4
 513 0034 FFF7FEFF 		bl	UI_LCD_WriteLine
 514              	.LVL42:
 515              	.LBE5:
 255:Core/Src/ui_lcd.c ****         char line[21];
 516              		.loc 1 255 39 is_stmt 1 discriminator 2 view .LVU102
 517              	.L37:
 255:Core/Src/ui_lcd.c ****         char line[21];
 518              		.loc 1 255 28 discriminator 1 view .LVU103
 519 0038 012C     		cmp	r4, #1
 520 003a 0FD8     		bhi	.L50
 521              	.LBB6:
 256:Core/Src/ui_lcd.c ****         uint8_t fan_index = index;
 522              		.loc 1 256 9 view .LVU104
 257:Core/Src/ui_lcd.c ****         char status = '-';
 523              		.loc 1 257 9 view .LVU105
 524              	.LVL43:
 258:Core/Src/ui_lcd.c **** 
 525              		.loc 1 258 9 view .LVU106
 260:Core/Src/ui_lcd.c ****             status = 'F';
 526              		.loc 1 260 9 view .LVU107
 260:Core/Src/ui_lcd.c ****             status = 'F';
 527              		.loc 1 260 18 is_stmt 0 view .LVU108
 528 003c 1B4B     		ldr	r3, .L51
 529 003e DB7B     		ldrb	r3, [r3, #15]	@ zero_extendqisi2
 260:Core/Src/ui_lcd.c ****             status = 'F';
 530              		.loc 1 260 50 view .LVU109
 531 0040 E340     		lsrs	r3, r3, r4
 260:Core/Src/ui_lcd.c ****             status = 'F';
ARM GAS  /var/folders/t9/y_chwk8j4cv2jjx6x9_h4twc0000gn/T//ccjMeHU7.s 			page 18


 532              		.loc 1 260 12 view .LVU110
 533 0042 13F0010F 		tst	r3, #1
 534 0046 E8D1     		bne	.L43
 262:Core/Src/ui_lcd.c ****             status = 'P';
 535              		.loc 1 262 16 is_stmt 1 view .LVU111
 262:Core/Src/ui_lcd.c ****             status = 'P';
 536              		.loc 1 262 25 is_stmt 0 view .LVU112
 537 0048 184B     		ldr	r3, .L51
 538 004a 9B7B     		ldrb	r3, [r3, #14]	@ zero_extendqisi2
 262:Core/Src/ui_lcd.c ****             status = 'P';
 539              		.loc 1 262 59 view .LVU113
 540 004c E340     		lsrs	r3, r3, r4
 262:Core/Src/ui_lcd.c ****             status = 'P';
 541              		.loc 1 262 19 view .LVU114
 542 004e 13F0010F 		tst	r3, #1
 543 0052 01D1     		bne	.L44
 258:Core/Src/ui_lcd.c **** 
 544              		.loc 1 258 14 view .LVU115
 545 0054 2D23     		movs	r3, #45
 546 0056 E1E7     		b	.L38
 547              	.L44:
 263:Core/Src/ui_lcd.c ****         }
 548              		.loc 1 263 20 view .LVU116
 549 0058 5023     		movs	r3, #80
 550 005a DFE7     		b	.L38
 551              	.LVL44:
 552              	.L50:
 263:Core/Src/ui_lcd.c ****         }
 553              		.loc 1 263 20 view .LVU117
 554              	.LBE6:
 270:Core/Src/ui_lcd.c ****              sizeof(summary),
 555              		.loc 1 270 5 is_stmt 1 view .LVU118
 273:Core/Src/ui_lcd.c ****              ((g_ui.fail_mask & (1U << 3U)) != 0U) ? 'F' : (((g_ui.passed_mask & (1U << 3U)) != 0U)
 556              		.loc 1 273 20 is_stmt 0 view .LVU119
 557 005c 134B     		ldr	r3, .L51
 558 005e DA7B     		ldrb	r2, [r3, #15]	@ zero_extendqisi2
 270:Core/Src/ui_lcd.c ****              sizeof(summary),
 559              		.loc 1 270 5 view .LVU120
 560 0060 12F0040F 		tst	r2, #4
 561 0064 05D1     		bne	.L45
 273:Core/Src/ui_lcd.c ****              ((g_ui.fail_mask & (1U << 3U)) != 0U) ? 'F' : (((g_ui.passed_mask & (1U << 3U)) != 0U)
 562              		.loc 1 273 67 view .LVU121
 563 0066 9B7B     		ldrb	r3, [r3, #14]	@ zero_extendqisi2
 273:Core/Src/ui_lcd.c ****              ((g_ui.fail_mask & (1U << 3U)) != 0U) ? 'F' : (((g_ui.passed_mask & (1U << 3U)) != 0U)
 564              		.loc 1 273 107 view .LVU122
 565 0068 13F0040F 		tst	r3, #4
 566 006c 0CD0     		beq	.L46
 270:Core/Src/ui_lcd.c ****              sizeof(summary),
 567              		.loc 1 270 5 view .LVU123
 568 006e 5023     		movs	r3, #80
 569 0070 00E0     		b	.L40
 570              	.L45:
 270:Core/Src/ui_lcd.c ****              sizeof(summary),
 571              		.loc 1 270 5 discriminator 1 view .LVU124
 572 0072 4623     		movs	r3, #70
 573              	.L40:
 270:Core/Src/ui_lcd.c ****              sizeof(summary),
ARM GAS  /var/folders/t9/y_chwk8j4cv2jjx6x9_h4twc0000gn/T//ccjMeHU7.s 			page 19


 574              		.loc 1 270 5 discriminator 2 view .LVU125
 575 0074 12F0080F 		tst	r2, #8
 576 0078 08D1     		bne	.L47
 274:Core/Src/ui_lcd.c ****     UI_LCD_WriteLine(3U, summary);
 577              		.loc 1 274 67 view .LVU126
 578 007a 0C4A     		ldr	r2, .L51
 579 007c 927B     		ldrb	r2, [r2, #14]	@ zero_extendqisi2
 274:Core/Src/ui_lcd.c ****     UI_LCD_WriteLine(3U, summary);
 580              		.loc 1 274 107 view .LVU127
 581 007e 12F0080F 		tst	r2, #8
 582 0082 11D0     		beq	.L48
 270:Core/Src/ui_lcd.c ****              sizeof(summary),
 583              		.loc 1 270 5 view .LVU128
 584 0084 5022     		movs	r2, #80
 585 0086 02E0     		b	.L41
 586              	.L46:
 587 0088 2D23     		movs	r3, #45
 588 008a F3E7     		b	.L40
 589              	.L47:
 270:Core/Src/ui_lcd.c ****              sizeof(summary),
 590              		.loc 1 270 5 discriminator 3 view .LVU129
 591 008c 4622     		movs	r2, #70
 592              	.L41:
 270:Core/Src/ui_lcd.c ****              sizeof(summary),
 593              		.loc 1 270 5 discriminator 4 view .LVU130
 594 008e 08AC     		add	r4, sp, #32
 595              	.LVL45:
 270:Core/Src/ui_lcd.c ****              sizeof(summary),
 596              		.loc 1 270 5 discriminator 4 view .LVU131
 597 0090 0092     		str	r2, [sp]
 598 0092 0A4A     		ldr	r2, .L51+16
 599 0094 1521     		movs	r1, #21
 600 0096 2046     		mov	r0, r4
 601 0098 FFF7FEFF 		bl	snprintf
 602              	.LVL46:
 275:Core/Src/ui_lcd.c **** }
 603              		.loc 1 275 5 is_stmt 1 view .LVU132
 604 009c 2146     		mov	r1, r4
 605 009e 0320     		movs	r0, #3
 606 00a0 FFF7FEFF 		bl	UI_LCD_WriteLine
 607              	.LVL47:
 276:Core/Src/ui_lcd.c **** 
 608              		.loc 1 276 1 is_stmt 0 view .LVU133
 609 00a4 0FB0     		add	sp, sp, #60
 610              	.LCFI11:
 611              		.cfi_remember_state
 612              		.cfi_def_cfa_offset 12
 613              		@ sp needed
 614 00a6 30BD     		pop	{r4, r5, pc}
 615              	.LVL48:
 616              	.L48:
 617              	.LCFI12:
 618              		.cfi_restore_state
 270:Core/Src/ui_lcd.c ****              sizeof(summary),
 619              		.loc 1 270 5 view .LVU134
 620 00a8 2D22     		movs	r2, #45
 621 00aa F0E7     		b	.L41
ARM GAS  /var/folders/t9/y_chwk8j4cv2jjx6x9_h4twc0000gn/T//ccjMeHU7.s 			page 20


 622              	.L52:
 623              		.align	2
 624              	.L51:
 625 00ac 00000000 		.word	g_ui
 626 00b0 00000000 		.word	.LC4
 627 00b4 14000000 		.word	.LC5
 628 00b8 24000000 		.word	.LC6
 629 00bc 34000000 		.word	.LC7
 630              		.cfi_endproc
 631              	.LFE79:
 633              		.section	.rodata.UI_LCD_RenderRuntime.str1.4,"aMS",%progbits,1
 634              		.align	2
 635              	.LC8:
 636 0000 46257520 		.ascii	"F%u %s %u/%u\000"
 636      25732025 
 636      752F2575 
 636      00
 637 000d 000000   		.align	2
 638              	.LC9:
 639 0010 5425753D 		.ascii	"T%u=%uC D=%u%%\000"
 639      25754320 
 639      443D2575 
 639      252500
 640              		.section	.text.UI_LCD_RenderRuntime,"ax",%progbits
 641              		.align	1
 642              		.syntax unified
 643              		.thumb
 644              		.thumb_func
 646              	UI_LCD_RenderRuntime:
 647              	.LFB80:
 279:Core/Src/ui_lcd.c ****     uint8_t page = UI_LCD_GetProfilePage();
 648              		.loc 1 279 1 is_stmt 1 view -0
 649              		.cfi_startproc
 650              		@ args = 0, pretend = 0, frame = 32
 651              		@ frame_needed = 0, uses_anonymous_args = 0
 652 0000 2DE9F041 		push	{r4, r5, r6, r7, r8, lr}
 653              	.LCFI13:
 654              		.cfi_def_cfa_offset 24
 655              		.cfi_offset 4, -24
 656              		.cfi_offset 5, -20
 657              		.cfi_offset 6, -16
 658              		.cfi_offset 7, -12
 659              		.cfi_offset 8, -8
 660              		.cfi_offset 14, -4
 661 0004 8CB0     		sub	sp, sp, #48
 662              	.LCFI14:
 663              		.cfi_def_cfa_offset 72
 280:Core/Src/ui_lcd.c ****     uint8_t first_index = (uint8_t)(page * 2U);
 664              		.loc 1 280 5 view .LVU136
 280:Core/Src/ui_lcd.c ****     uint8_t first_index = (uint8_t)(page * 2U);
 665              		.loc 1 280 20 is_stmt 0 view .LVU137
 666 0006 FFF7FEFF 		bl	UI_LCD_GetProfilePage
 667              	.LVL49:
 281:Core/Src/ui_lcd.c ****     uint8_t row;
 668              		.loc 1 281 5 is_stmt 1 view .LVU138
 281:Core/Src/ui_lcd.c ****     uint8_t row;
 669              		.loc 1 281 13 is_stmt 0 view .LVU139
ARM GAS  /var/folders/t9/y_chwk8j4cv2jjx6x9_h4twc0000gn/T//ccjMeHU7.s 			page 21


 670 000a 4000     		lsls	r0, r0, #1
 671              	.LVL50:
 281:Core/Src/ui_lcd.c ****     uint8_t row;
 672              		.loc 1 281 13 view .LVU140
 673 000c C6B2     		uxtb	r6, r0
 674              	.LVL51:
 282:Core/Src/ui_lcd.c **** 
 675              		.loc 1 282 5 is_stmt 1 view .LVU141
 287:Core/Src/ui_lcd.c ****         char line[21];
 676              		.loc 1 287 5 view .LVU142
 287:Core/Src/ui_lcd.c ****         char line[21];
 677              		.loc 1 287 14 is_stmt 0 view .LVU143
 678 000e 0024     		movs	r4, #0
 287:Core/Src/ui_lcd.c ****         char line[21];
 679              		.loc 1 287 5 view .LVU144
 680 0010 01E0     		b	.L54
 681              	.LVL52:
 682              	.L55:
 287:Core/Src/ui_lcd.c ****         char line[21];
 683              		.loc 1 287 33 is_stmt 1 discriminator 2 view .LVU145
 684 0012 0134     		adds	r4, r4, #1
 685              	.LVL53:
 287:Core/Src/ui_lcd.c ****         char line[21];
 686              		.loc 1 287 33 is_stmt 0 discriminator 2 view .LVU146
 687 0014 E4B2     		uxtb	r4, r4
 688              	.LVL54:
 689              	.L54:
 287:Core/Src/ui_lcd.c ****         char line[21];
 690              		.loc 1 287 24 is_stmt 1 discriminator 1 view .LVU147
 691 0016 012C     		cmp	r4, #1
 692 0018 4ED8     		bhi	.L58
 693              	.LBB7:
 288:Core/Src/ui_lcd.c ****         uint8_t fan_index = (uint8_t)(first_index + row);
 694              		.loc 1 288 9 view .LVU148
 289:Core/Src/ui_lcd.c **** 
 695              		.loc 1 289 9 view .LVU149
 289:Core/Src/ui_lcd.c **** 
 696              		.loc 1 289 17 is_stmt 0 view .LVU150
 697 001a A319     		adds	r3, r4, r6
 698 001c DDB2     		uxtb	r5, r3
 699              	.LVL55:
 291:Core/Src/ui_lcd.c ****             snprintf(line,
 700              		.loc 1 291 9 is_stmt 1 view .LVU151
 291:Core/Src/ui_lcd.c ****             snprintf(line,
 701              		.loc 1 291 18 is_stmt 0 view .LVU152
 702 001e 284B     		ldr	r3, .L59
 703 0020 5B69     		ldr	r3, [r3, #20]
 291:Core/Src/ui_lcd.c ****             snprintf(line,
 704              		.loc 1 291 12 view .LVU153
 705 0022 002B     		cmp	r3, #0
 706 0024 F5D0     		beq	.L55
 291:Core/Src/ui_lcd.c ****             snprintf(line,
 707              		.loc 1 291 45 discriminator 1 view .LVU154
 708 0026 264A     		ldr	r2, .L59
 709 0028 9269     		ldr	r2, [r2, #24]
 291:Core/Src/ui_lcd.c ****             snprintf(line,
 710              		.loc 1 291 37 discriminator 1 view .LVU155
ARM GAS  /var/folders/t9/y_chwk8j4cv2jjx6x9_h4twc0000gn/T//ccjMeHU7.s 			page 22


 711 002a 002A     		cmp	r2, #0
 712 002c F1D0     		beq	.L55
 291:Core/Src/ui_lcd.c ****             snprintf(line,
 713              		.loc 1 291 69 discriminator 2 view .LVU156
 714 002e 244A     		ldr	r2, .L59
 715 0030 D269     		ldr	r2, [r2, #28]
 291:Core/Src/ui_lcd.c ****             snprintf(line,
 716              		.loc 1 291 61 discriminator 2 view .LVU157
 717 0032 002A     		cmp	r2, #0
 718 0034 EDD0     		beq	.L55
 291:Core/Src/ui_lcd.c ****             snprintf(line,
 719              		.loc 1 291 95 discriminator 3 view .LVU158
 720 0036 224A     		ldr	r2, .L59
 721 0038 126A     		ldr	r2, [r2, #32]
 291:Core/Src/ui_lcd.c ****             snprintf(line,
 722              		.loc 1 291 87 discriminator 3 view .LVU159
 723 003a 002A     		cmp	r2, #0
 724 003c E9D0     		beq	.L55
 291:Core/Src/ui_lcd.c ****             snprintf(line,
 725              		.loc 1 291 110 discriminator 4 view .LVU160
 726 003e 032D     		cmp	r5, #3
 727 0040 E7D8     		bhi	.L55
 292:Core/Src/ui_lcd.c ****                      sizeof(line),
 728              		.loc 1 292 13 is_stmt 1 view .LVU161
 729 0042 6F1C     		adds	r7, r5, #1
 296:Core/Src/ui_lcd.c ****                      (unsigned int)g_ui.fans[fan_index].rpm,
 730              		.loc 1 296 67 is_stmt 0 view .LVU162
 731 0044 C5EBC502 		rsb	r2, r5, r5, lsl #3
 732 0048 03EB4203 		add	r3, r3, r2, lsl #1
 292:Core/Src/ui_lcd.c ****                      sizeof(line),
 733              		.loc 1 292 13 view .LVU163
 734 004c 9878     		ldrb	r0, [r3, #2]	@ zero_extendqisi2
 735 004e FFF7FEFF 		bl	Profil_GetName
 736              	.LVL56:
 297:Core/Src/ui_lcd.c ****                      (unsigned int)g_ui.targets->target_rpm[fan_index]);
 737              		.loc 1 297 40 view .LVU164
 738 0052 DFF86C80 		ldr	r8, .L59
 739 0056 D8F82030 		ldr	r3, [r8, #32]
 297:Core/Src/ui_lcd.c ****                      (unsigned int)g_ui.targets->target_rpm[fan_index]);
 740              		.loc 1 297 45 view .LVU165
 741 005a 05EB8502 		add	r2, r5, r5, lsl #2
 742 005e 5100     		lsls	r1, r2, #1
 743 0060 0591     		str	r1, [sp, #20]
 744 0062 03EB4203 		add	r3, r3, r2, lsl #1
 297:Core/Src/ui_lcd.c ****                      (unsigned int)g_ui.targets->target_rpm[fan_index]);
 745              		.loc 1 297 56 view .LVU166
 746 0066 9B88     		ldrh	r3, [r3, #4]
 298:Core/Src/ui_lcd.c ****             UI_LCD_WriteLine(row, line);
 747              		.loc 1 298 40 view .LVU167
 748 0068 D8F81C20 		ldr	r2, [r8, #28]
 298:Core/Src/ui_lcd.c ****             UI_LCD_WriteLine(row, line);
 749              		.loc 1 298 60 view .LVU168
 750 006c 32F81520 		ldrh	r2, [r2, r5, lsl #1]
 292:Core/Src/ui_lcd.c ****                      sizeof(line),
 751              		.loc 1 292 13 view .LVU169
 752 0070 0292     		str	r2, [sp, #8]
 753 0072 0193     		str	r3, [sp, #4]
ARM GAS  /var/folders/t9/y_chwk8j4cv2jjx6x9_h4twc0000gn/T//ccjMeHU7.s 			page 23


 754 0074 0090     		str	r0, [sp]
 755 0076 3B46     		mov	r3, r7
 756 0078 124A     		ldr	r2, .L59+4
 757 007a 1521     		movs	r1, #21
 758 007c 06A8     		add	r0, sp, #24
 759 007e FFF7FEFF 		bl	snprintf
 760              	.LVL57:
 299:Core/Src/ui_lcd.c **** 
 761              		.loc 1 299 13 is_stmt 1 view .LVU170
 762 0082 06AB     		add	r3, sp, #24
 763 0084 1946     		mov	r1, r3
 764 0086 2046     		mov	r0, r4
 765 0088 FFF7FEFF 		bl	UI_LCD_WriteLine
 766              	.LVL58:
 301:Core/Src/ui_lcd.c ****                      sizeof(line),
 767              		.loc 1 301 13 view .LVU171
 305:Core/Src/ui_lcd.c ****                      (unsigned int)g_ui.fans[fan_index].percent);
 768              		.loc 1 305 40 is_stmt 0 view .LVU172
 769 008c D8F81830 		ldr	r3, [r8, #24]
 305:Core/Src/ui_lcd.c ****                      (unsigned int)g_ui.fans[fan_index].percent);
 770              		.loc 1 305 56 view .LVU173
 771 0090 5A5D     		ldrb	r2, [r3, r5]	@ zero_extendqisi2
 306:Core/Src/ui_lcd.c ****             UI_LCD_WriteLine((uint8_t)(row + 2U), line);
 772              		.loc 1 306 40 view .LVU174
 773 0092 D8F82030 		ldr	r3, [r8, #32]
 306:Core/Src/ui_lcd.c ****             UI_LCD_WriteLine((uint8_t)(row + 2U), line);
 774              		.loc 1 306 45 view .LVU175
 775 0096 0599     		ldr	r1, [sp, #20]
 776 0098 0B44     		add	r3, r3, r1
 306:Core/Src/ui_lcd.c ****             UI_LCD_WriteLine((uint8_t)(row + 2U), line);
 777              		.loc 1 306 56 view .LVU176
 778 009a 1B7A     		ldrb	r3, [r3, #8]	@ zero_extendqisi2
 301:Core/Src/ui_lcd.c ****                      sizeof(line),
 779              		.loc 1 301 13 view .LVU177
 780 009c 0193     		str	r3, [sp, #4]
 781 009e 0092     		str	r2, [sp]
 782 00a0 3B46     		mov	r3, r7
 783 00a2 094A     		ldr	r2, .L59+8
 784 00a4 1521     		movs	r1, #21
 785 00a6 06A8     		add	r0, sp, #24
 786 00a8 FFF7FEFF 		bl	snprintf
 787              	.LVL59:
 307:Core/Src/ui_lcd.c ****         }
 788              		.loc 1 307 13 is_stmt 1 view .LVU178
 307:Core/Src/ui_lcd.c ****         }
 789              		.loc 1 307 30 is_stmt 0 view .LVU179
 790 00ac A01C     		adds	r0, r4, #2
 307:Core/Src/ui_lcd.c ****         }
 791              		.loc 1 307 13 view .LVU180
 792 00ae 06A9     		add	r1, sp, #24
 793 00b0 C0B2     		uxtb	r0, r0
 794 00b2 FFF7FEFF 		bl	UI_LCD_WriteLine
 795              	.LVL60:
 796 00b6 ACE7     		b	.L55
 797              	.LVL61:
 798              	.L58:
 307:Core/Src/ui_lcd.c ****         }
ARM GAS  /var/folders/t9/y_chwk8j4cv2jjx6x9_h4twc0000gn/T//ccjMeHU7.s 			page 24


 799              		.loc 1 307 13 view .LVU181
 800              	.LBE7:
 310:Core/Src/ui_lcd.c **** 
 801              		.loc 1 310 1 view .LVU182
 802 00b8 0CB0     		add	sp, sp, #48
 803              	.LCFI15:
 804              		.cfi_def_cfa_offset 24
 805              		@ sp needed
 806 00ba BDE8F081 		pop	{r4, r5, r6, r7, r8, pc}
 807              	.LVL62:
 808              	.L60:
 310:Core/Src/ui_lcd.c **** 
 809              		.loc 1 310 1 view .LVU183
 810 00be 00BF     		.align	2
 811              	.L59:
 812 00c0 00000000 		.word	g_ui
 813 00c4 00000000 		.word	.LC8
 814 00c8 10000000 		.word	.LC9
 815              		.cfi_endproc
 816              	.LFE80:
 818              		.section	.rodata.UI_LCD_Render.str1.4,"aMS",%progbits,1
 819              		.align	2
 820              	.LC10:
 821 0000 50726F66 		.ascii	"Profiles Ready\000"
 821      696C6573 
 821      20526561 
 821      647900
 822 000f 00       		.align	2
 823              	.LC11:
 824 0010 50726573 		.ascii	"Press 'c' UART\000"
 824      73202763 
 824      27205541 
 824      525400
 825 001f 00       		.align	2
 826              	.LC12:
 827 0020 53746172 		.ascii	"Startup Failure\000"
 827      74757020 
 827      4661696C 
 827      75726500 
 828              		.align	2
 829              	.LC13:
 830 0030 53616665 		.ascii	"Safe State Active\000"
 830      20537461 
 830      74652041 
 830      63746976 
 830      6500
 831 0042 0000     		.align	2
 832              	.LC14:
 833 0044 4661696C 		.ascii	"Fail mask: 0x%02X\000"
 833      206D6173 
 833      6B3A2030 
 833      78253032 
 833      5800
 834 0056 0000     		.align	2
 835              	.LC15:
 836 0058 52657365 		.ascii	"Reset required\000"
 836      74207265 
ARM GAS  /var/folders/t9/y_chwk8j4cv2jjx6x9_h4twc0000gn/T//ccjMeHU7.s 			page 25


 836      71756972 
 836      656400
 837 0067 00       		.align	2
 838              	.LC16:
 839 0068 41464C43 		.ascii	"AFLC Initializing\000"
 839      20496E69 
 839      7469616C 
 839      697A696E 
 839      6700
 840 007a 0000     		.align	2
 841              	.LC17:
 842 007c 00       		.ascii	"\000"
 843              		.section	.text.UI_LCD_Render,"ax",%progbits
 844              		.align	1
 845              		.syntax unified
 846              		.thumb
 847              		.thumb_func
 849              	UI_LCD_Render:
 850              	.LFB77:
 175:Core/Src/ui_lcd.c ****     // Routeur principal d'ecran.
 851              		.loc 1 175 1 is_stmt 1 view -0
 852              		.cfi_startproc
 853              		@ args = 0, pretend = 0, frame = 24
 854              		@ frame_needed = 0, uses_anonymous_args = 0
 855 0000 00B5     		push	{lr}
 856              	.LCFI16:
 857              		.cfi_def_cfa_offset 4
 858              		.cfi_offset 14, -4
 859 0002 87B0     		sub	sp, sp, #28
 860              	.LCFI17:
 861              		.cfi_def_cfa_offset 32
 177:Core/Src/ui_lcd.c ****         case UI_SCREEN_PROFILES_READY:
 862              		.loc 1 177 5 view .LVU185
 177:Core/Src/ui_lcd.c ****         case UI_SCREEN_PROFILES_READY:
 863              		.loc 1 177 17 is_stmt 0 view .LVU186
 864 0004 224B     		ldr	r3, .L72
 865 0006 1B78     		ldrb	r3, [r3]	@ zero_extendqisi2
 177:Core/Src/ui_lcd.c ****         case UI_SCREEN_PROFILES_READY:
 866              		.loc 1 177 5 view .LVU187
 867 0008 032B     		cmp	r3, #3
 868 000a 29D0     		beq	.L62
 869 000c 1BD9     		bls	.L71
 870 000e 042B     		cmp	r3, #4
 871 0010 29D0     		beq	.L67
 872 0012 052B     		cmp	r3, #5
 873 0014 2AD1     		bne	.L66
 191:Core/Src/ui_lcd.c ****             UI_LCD_WriteLine(1U, "Safe State Active");
 874              		.loc 1 191 13 is_stmt 1 view .LVU188
 875 0016 1F49     		ldr	r1, .L72+4
 876 0018 0020     		movs	r0, #0
 877 001a FFF7FEFF 		bl	UI_LCD_WriteLine
 878              	.LVL63:
 192:Core/Src/ui_lcd.c ****             {
 879              		.loc 1 192 13 view .LVU189
 880 001e 1E49     		ldr	r1, .L72+8
 881 0020 0120     		movs	r0, #1
 882 0022 FFF7FEFF 		bl	UI_LCD_WriteLine
ARM GAS  /var/folders/t9/y_chwk8j4cv2jjx6x9_h4twc0000gn/T//ccjMeHU7.s 			page 26


 883              	.LVL64:
 884              	.LBB8:
 194:Core/Src/ui_lcd.c ****                 snprintf(line, sizeof(line), "Fail mask: 0x%02X", g_ui.fail_mask);
 885              		.loc 1 194 17 view .LVU190
 195:Core/Src/ui_lcd.c ****                 UI_LCD_WriteLine(2U, line);
 886              		.loc 1 195 17 view .LVU191
 887 0026 1A4B     		ldr	r3, .L72
 888 0028 DB7B     		ldrb	r3, [r3, #15]	@ zero_extendqisi2
 889 002a 1C4A     		ldr	r2, .L72+12
 890 002c 1521     		movs	r1, #21
 891 002e 6846     		mov	r0, sp
 892 0030 FFF7FEFF 		bl	snprintf
 893              	.LVL65:
 196:Core/Src/ui_lcd.c ****             }
 894              		.loc 1 196 17 view .LVU192
 895 0034 6946     		mov	r1, sp
 896 0036 0220     		movs	r0, #2
 897 0038 FFF7FEFF 		bl	UI_LCD_WriteLine
 898              	.LVL66:
 899              	.LBE8:
 198:Core/Src/ui_lcd.c ****             break;
 900              		.loc 1 198 13 view .LVU193
 901 003c 1849     		ldr	r1, .L72+16
 902 003e 0320     		movs	r0, #3
 903 0040 FFF7FEFF 		bl	UI_LCD_WriteLine
 904              	.LVL67:
 199:Core/Src/ui_lcd.c ****         case UI_SCREEN_NONE:
 905              		.loc 1 199 13 view .LVU194
 906 0044 0AE0     		b	.L61
 907              	.L71:
 177:Core/Src/ui_lcd.c ****         case UI_SCREEN_PROFILES_READY:
 908              		.loc 1 177 5 is_stmt 0 view .LVU195
 909 0046 012B     		cmp	r3, #1
 910 0048 05D0     		beq	.L64
 911 004a 022B     		cmp	r3, #2
 912 004c 0ED1     		bne	.L66
 182:Core/Src/ui_lcd.c ****             break;
 913              		.loc 1 182 13 is_stmt 1 view .LVU196
 914 004e 1548     		ldr	r0, .L72+20
 915 0050 FFF7FEFF 		bl	UI_LCD_RenderProfileScreen
 916              	.LVL68:
 183:Core/Src/ui_lcd.c ****         case UI_SCREEN_STARTUP_TEST:
 917              		.loc 1 183 13 view .LVU197
 918 0054 02E0     		b	.L61
 919              	.L64:
 179:Core/Src/ui_lcd.c ****             break;
 920              		.loc 1 179 13 view .LVU198
 921 0056 1448     		ldr	r0, .L72+24
 922 0058 FFF7FEFF 		bl	UI_LCD_RenderProfileScreen
 923              	.LVL69:
 180:Core/Src/ui_lcd.c ****         case UI_SCREEN_WAIT_CONFIRM:
 924              		.loc 1 180 13 view .LVU199
 925              	.L61:
 208:Core/Src/ui_lcd.c **** 
 926              		.loc 1 208 1 is_stmt 0 view .LVU200
 927 005c 07B0     		add	sp, sp, #28
 928              	.LCFI18:
ARM GAS  /var/folders/t9/y_chwk8j4cv2jjx6x9_h4twc0000gn/T//ccjMeHU7.s 			page 27


 929              		.cfi_remember_state
 930              		.cfi_def_cfa_offset 4
 931              		@ sp needed
 932 005e 00BD     		pop	{pc}
 933              	.L62:
 934              	.LCFI19:
 935              		.cfi_restore_state
 185:Core/Src/ui_lcd.c ****             break;
 936              		.loc 1 185 13 is_stmt 1 view .LVU201
 937 0060 FFF7FEFF 		bl	UI_LCD_RenderStartupTest
 938              	.LVL70:
 186:Core/Src/ui_lcd.c ****         case UI_SCREEN_RUNTIME:
 939              		.loc 1 186 13 view .LVU202
 940 0064 FAE7     		b	.L61
 941              	.L67:
 188:Core/Src/ui_lcd.c ****             break;
 942              		.loc 1 188 13 view .LVU203
 943 0066 FFF7FEFF 		bl	UI_LCD_RenderRuntime
 944              	.LVL71:
 189:Core/Src/ui_lcd.c ****         case UI_SCREEN_SAFE_STATE:
 945              		.loc 1 189 13 view .LVU204
 946 006a F7E7     		b	.L61
 947              	.L66:
 202:Core/Src/ui_lcd.c ****             UI_LCD_WriteLine(1U, "");
 948              		.loc 1 202 13 view .LVU205
 949 006c 0F49     		ldr	r1, .L72+28
 950 006e 0020     		movs	r0, #0
 951 0070 FFF7FEFF 		bl	UI_LCD_WriteLine
 952              	.LVL72:
 203:Core/Src/ui_lcd.c ****             UI_LCD_WriteLine(2U, "");
 953              		.loc 1 203 13 view .LVU206
 954 0074 0E49     		ldr	r1, .L72+32
 955 0076 0120     		movs	r0, #1
 956 0078 FFF7FEFF 		bl	UI_LCD_WriteLine
 957              	.LVL73:
 204:Core/Src/ui_lcd.c ****             UI_LCD_WriteLine(3U, "");
 958              		.loc 1 204 13 view .LVU207
 959 007c 0C49     		ldr	r1, .L72+32
 960 007e 0220     		movs	r0, #2
 961 0080 FFF7FEFF 		bl	UI_LCD_WriteLine
 962              	.LVL74:
 205:Core/Src/ui_lcd.c ****             break;
 963              		.loc 1 205 13 view .LVU208
 964 0084 0A49     		ldr	r1, .L72+32
 965 0086 0320     		movs	r0, #3
 966 0088 FFF7FEFF 		bl	UI_LCD_WriteLine
 967              	.LVL75:
 206:Core/Src/ui_lcd.c ****     }
 968              		.loc 1 206 13 view .LVU209
 208:Core/Src/ui_lcd.c **** 
 969              		.loc 1 208 1 is_stmt 0 view .LVU210
 970 008c E6E7     		b	.L61
 971              	.L73:
 972 008e 00BF     		.align	2
 973              	.L72:
 974 0090 00000000 		.word	g_ui
 975 0094 20000000 		.word	.LC12
ARM GAS  /var/folders/t9/y_chwk8j4cv2jjx6x9_h4twc0000gn/T//ccjMeHU7.s 			page 28


 976 0098 30000000 		.word	.LC13
 977 009c 44000000 		.word	.LC14
 978 00a0 58000000 		.word	.LC15
 979 00a4 10000000 		.word	.LC11
 980 00a8 00000000 		.word	.LC10
 981 00ac 68000000 		.word	.LC16
 982 00b0 7C000000 		.word	.LC17
 983              		.cfi_endproc
 984              	.LFE77:
 986              		.section	.text.UI_LCD_Init,"ax",%progbits
 987              		.align	1
 988              		.global	UI_LCD_Init
 989              		.syntax unified
 990              		.thumb
 991              		.thumb_func
 993              	UI_LCD_Init:
 994              	.LFB68:
  50:Core/Src/ui_lcd.c ****     LCD_Init();
 995              		.loc 1 50 1 is_stmt 1 view -0
 996              		.cfi_startproc
 997              		@ args = 0, pretend = 0, frame = 0
 998              		@ frame_needed = 0, uses_anonymous_args = 0
 999 0000 38B5     		push	{r3, r4, r5, lr}
 1000              	.LCFI20:
 1001              		.cfi_def_cfa_offset 16
 1002              		.cfi_offset 3, -16
 1003              		.cfi_offset 4, -12
 1004              		.cfi_offset 5, -8
 1005              		.cfi_offset 14, -4
  51:Core/Src/ui_lcd.c ****     LCD_Clear();
 1006              		.loc 1 51 5 view .LVU212
 1007 0002 FFF7FEFF 		bl	LCD_Init
 1008              	.LVL76:
  52:Core/Src/ui_lcd.c ****     UI_LCD_ClearCache();
 1009              		.loc 1 52 5 view .LVU213
 1010 0006 FFF7FEFF 		bl	LCD_Clear
 1011              	.LVL77:
  53:Core/Src/ui_lcd.c **** 
 1012              		.loc 1 53 5 view .LVU214
 1013 000a FFF7FEFF 		bl	UI_LCD_ClearCache
 1014              	.LVL78:
  56:Core/Src/ui_lcd.c ****     g_ui.next_refresh_ms = HAL_GetTick();
 1015              		.loc 1 56 5 view .LVU215
  56:Core/Src/ui_lcd.c ****     g_ui.next_refresh_ms = HAL_GetTick();
 1016              		.loc 1 56 17 is_stmt 0 view .LVU216
 1017 000e 064C     		ldr	r4, .L76
 1018 0010 0025     		movs	r5, #0
 1019 0012 2570     		strb	r5, [r4]
  57:Core/Src/ui_lcd.c ****     g_ui.page_started_ms = HAL_GetTick();
 1020              		.loc 1 57 5 is_stmt 1 view .LVU217
  57:Core/Src/ui_lcd.c ****     g_ui.page_started_ms = HAL_GetTick();
 1021              		.loc 1 57 28 is_stmt 0 view .LVU218
 1022 0014 FFF7FEFF 		bl	HAL_GetTick
 1023              	.LVL79:
  57:Core/Src/ui_lcd.c ****     g_ui.page_started_ms = HAL_GetTick();
 1024              		.loc 1 57 26 discriminator 1 view .LVU219
 1025 0018 6060     		str	r0, [r4, #4]
ARM GAS  /var/folders/t9/y_chwk8j4cv2jjx6x9_h4twc0000gn/T//ccjMeHU7.s 			page 29


  58:Core/Src/ui_lcd.c ****     g_ui.page_index = 0U;
 1026              		.loc 1 58 5 is_stmt 1 view .LVU220
  58:Core/Src/ui_lcd.c ****     g_ui.page_index = 0U;
 1027              		.loc 1 58 28 is_stmt 0 view .LVU221
 1028 001a FFF7FEFF 		bl	HAL_GetTick
 1029              	.LVL80:
  58:Core/Src/ui_lcd.c ****     g_ui.page_index = 0U;
 1030              		.loc 1 58 26 discriminator 1 view .LVU222
 1031 001e A060     		str	r0, [r4, #8]
  59:Core/Src/ui_lcd.c ****     g_ui.dirty = 1U;
 1032              		.loc 1 59 5 is_stmt 1 view .LVU223
  59:Core/Src/ui_lcd.c ****     g_ui.dirty = 1U;
 1033              		.loc 1 59 21 is_stmt 0 view .LVU224
 1034 0020 2573     		strb	r5, [r4, #12]
  60:Core/Src/ui_lcd.c **** }
 1035              		.loc 1 60 5 is_stmt 1 view .LVU225
  60:Core/Src/ui_lcd.c **** }
 1036              		.loc 1 60 16 is_stmt 0 view .LVU226
 1037 0022 0123     		movs	r3, #1
 1038 0024 6373     		strb	r3, [r4, #13]
  61:Core/Src/ui_lcd.c **** 
 1039              		.loc 1 61 1 view .LVU227
 1040 0026 38BD     		pop	{r3, r4, r5, pc}
 1041              	.L77:
 1042              		.align	2
 1043              	.L76:
 1044 0028 00000000 		.word	g_ui
 1045              		.cfi_endproc
 1046              	.LFE68:
 1048              		.section	.text.UI_LCD_Task,"ax",%progbits
 1049              		.align	1
 1050              		.global	UI_LCD_Task
 1051              		.syntax unified
 1052              		.thumb
 1053              		.thumb_func
 1055              	UI_LCD_Task:
 1056              	.LVL81:
 1057              	.LFB69:
  64:Core/Src/ui_lcd.c ****     // Si rien n'a change et qu'on est avant le prochain refresh, on sort.
 1058              		.loc 1 64 1 is_stmt 1 view -0
 1059              		.cfi_startproc
 1060              		@ args = 0, pretend = 0, frame = 0
 1061              		@ frame_needed = 0, uses_anonymous_args = 0
  66:Core/Src/ui_lcd.c ****         return;
 1062              		.loc 1 66 5 view .LVU229
  66:Core/Src/ui_lcd.c ****         return;
 1063              		.loc 1 66 23 is_stmt 0 view .LVU230
 1064 0000 144B     		ldr	r3, .L86
 1065 0002 5B68     		ldr	r3, [r3, #4]
  66:Core/Src/ui_lcd.c ****         return;
 1066              		.loc 1 66 8 view .LVU231
 1067 0004 8342     		cmp	r3, r0
 1068 0006 02D9     		bls	.L79
  66:Core/Src/ui_lcd.c ****         return;
 1069              		.loc 1 66 49 discriminator 1 view .LVU232
 1070 0008 124B     		ldr	r3, .L86
 1071 000a 5B7B     		ldrb	r3, [r3, #13]	@ zero_extendqisi2
ARM GAS  /var/folders/t9/y_chwk8j4cv2jjx6x9_h4twc0000gn/T//ccjMeHU7.s 			page 30


  66:Core/Src/ui_lcd.c ****         return;
 1072              		.loc 1 66 41 discriminator 1 view .LVU233
 1073 000c 03B3     		cbz	r3, .L84
 1074              	.L79:
  64:Core/Src/ui_lcd.c ****     // Si rien n'a change et qu'on est avant le prochain refresh, on sort.
 1075              		.loc 1 64 1 view .LVU234
 1076 000e 10B5     		push	{r4, lr}
 1077              	.LCFI21:
 1078              		.cfi_def_cfa_offset 8
 1079              		.cfi_offset 4, -8
 1080              		.cfi_offset 14, -4
  71:Core/Src/ui_lcd.c ****         if ((now_ms - g_ui.page_started_ms) >= UI_LCD_PROFILE_PAGE_MS) {
 1081              		.loc 1 71 5 is_stmt 1 view .LVU235
  71:Core/Src/ui_lcd.c ****         if ((now_ms - g_ui.page_started_ms) >= UI_LCD_PROFILE_PAGE_MS) {
 1082              		.loc 1 71 14 is_stmt 0 view .LVU236
 1083 0010 104B     		ldr	r3, .L86
 1084 0012 1A78     		ldrb	r2, [r3]	@ zero_extendqisi2
  71:Core/Src/ui_lcd.c ****         if ((now_ms - g_ui.page_started_ms) >= UI_LCD_PROFILE_PAGE_MS) {
 1085              		.loc 1 71 51 view .LVU237
 1086 0014 531E     		subs	r3, r2, #1
 1087 0016 DBB2     		uxtb	r3, r3
  71:Core/Src/ui_lcd.c ****         if ((now_ms - g_ui.page_started_ms) >= UI_LCD_PROFILE_PAGE_MS) {
 1088              		.loc 1 71 8 view .LVU238
 1089 0018 012B     		cmp	r3, #1
 1090 001a 09D9     		bls	.L81
  71:Core/Src/ui_lcd.c ****         if ((now_ms - g_ui.page_started_ms) >= UI_LCD_PROFILE_PAGE_MS) {
 1091              		.loc 1 71 94 discriminator 1 view .LVU239
 1092 001c 042A     		cmp	r2, #4
 1093 001e 07D0     		beq	.L81
 1094              	.L82:
  79:Core/Src/ui_lcd.c ****     UI_LCD_Render();
 1095              		.loc 1 79 5 is_stmt 1 view .LVU240
  79:Core/Src/ui_lcd.c ****     UI_LCD_Render();
 1096              		.loc 1 79 35 is_stmt 0 view .LVU241
 1097 0020 FA30     		adds	r0, r0, #250
 1098              	.LVL82:
  79:Core/Src/ui_lcd.c ****     UI_LCD_Render();
 1099              		.loc 1 79 26 view .LVU242
 1100 0022 0C4C     		ldr	r4, .L86
 1101 0024 6060     		str	r0, [r4, #4]
  80:Core/Src/ui_lcd.c ****     g_ui.dirty = 0U;
 1102              		.loc 1 80 5 is_stmt 1 view .LVU243
 1103 0026 FFF7FEFF 		bl	UI_LCD_Render
 1104              	.LVL83:
  81:Core/Src/ui_lcd.c **** }
 1105              		.loc 1 81 5 view .LVU244
  81:Core/Src/ui_lcd.c **** }
 1106              		.loc 1 81 16 is_stmt 0 view .LVU245
 1107 002a 0023     		movs	r3, #0
 1108 002c 6373     		strb	r3, [r4, #13]
  82:Core/Src/ui_lcd.c **** 
 1109              		.loc 1 82 1 view .LVU246
 1110 002e 10BD     		pop	{r4, pc}
 1111              	.LVL84:
 1112              	.L81:
  72:Core/Src/ui_lcd.c ****             g_ui.page_started_ms = now_ms;
 1113              		.loc 1 72 9 is_stmt 1 view .LVU247
ARM GAS  /var/folders/t9/y_chwk8j4cv2jjx6x9_h4twc0000gn/T//ccjMeHU7.s 			page 31


  72:Core/Src/ui_lcd.c ****             g_ui.page_started_ms = now_ms;
 1114              		.loc 1 72 27 is_stmt 0 view .LVU248
 1115 0030 084B     		ldr	r3, .L86
 1116 0032 9B68     		ldr	r3, [r3, #8]
  72:Core/Src/ui_lcd.c ****             g_ui.page_started_ms = now_ms;
 1117              		.loc 1 72 21 view .LVU249
 1118 0034 C31A     		subs	r3, r0, r3
  72:Core/Src/ui_lcd.c ****             g_ui.page_started_ms = now_ms;
 1119              		.loc 1 72 12 view .LVU250
 1120 0036 40F2DB52 		movw	r2, #1499
 1121 003a 9342     		cmp	r3, r2
 1122 003c F0D9     		bls	.L82
  73:Core/Src/ui_lcd.c ****             g_ui.page_index ^= 1U;
 1123              		.loc 1 73 13 is_stmt 1 view .LVU251
  73:Core/Src/ui_lcd.c ****             g_ui.page_index ^= 1U;
 1124              		.loc 1 73 34 is_stmt 0 view .LVU252
 1125 003e 054B     		ldr	r3, .L86
 1126 0040 9860     		str	r0, [r3, #8]
  74:Core/Src/ui_lcd.c ****             g_ui.dirty = 1U;
 1127              		.loc 1 74 13 is_stmt 1 view .LVU253
  74:Core/Src/ui_lcd.c ****             g_ui.dirty = 1U;
 1128              		.loc 1 74 17 is_stmt 0 view .LVU254
 1129 0042 1A7B     		ldrb	r2, [r3, #12]	@ zero_extendqisi2
  74:Core/Src/ui_lcd.c ****             g_ui.dirty = 1U;
 1130              		.loc 1 74 29 view .LVU255
 1131 0044 82F00102 		eor	r2, r2, #1
 1132 0048 1A73     		strb	r2, [r3, #12]
  75:Core/Src/ui_lcd.c ****         }
 1133              		.loc 1 75 13 is_stmt 1 view .LVU256
  75:Core/Src/ui_lcd.c ****         }
 1134              		.loc 1 75 24 is_stmt 0 view .LVU257
 1135 004a 0122     		movs	r2, #1
 1136 004c 5A73     		strb	r2, [r3, #13]
 1137 004e E7E7     		b	.L82
 1138              	.L84:
 1139              	.LCFI22:
 1140              		.cfi_def_cfa_offset 0
 1141              		.cfi_restore 4
 1142              		.cfi_restore 14
  75:Core/Src/ui_lcd.c ****         }
 1143              		.loc 1 75 24 view .LVU258
 1144 0050 7047     		bx	lr
 1145              	.L87:
 1146 0052 00BF     		.align	2
 1147              	.L86:
 1148 0054 00000000 		.word	g_ui
 1149              		.cfi_endproc
 1150              	.LFE69:
 1152              		.section	.text.UI_LCD_ShowProfilesReady,"ax",%progbits
 1153              		.align	1
 1154              		.global	UI_LCD_ShowProfilesReady
 1155              		.syntax unified
 1156              		.thumb
 1157              		.thumb_func
 1159              	UI_LCD_ShowProfilesReady:
 1160              	.LVL85:
 1161              	.LFB70:
ARM GAS  /var/folders/t9/y_chwk8j4cv2jjx6x9_h4twc0000gn/T//ccjMeHU7.s 			page 32


  85:Core/Src/ui_lcd.c ****     if (g_ui.screen != UI_SCREEN_PROFILES_READY) {
 1162              		.loc 1 85 1 is_stmt 1 view -0
 1163              		.cfi_startproc
 1164              		@ args = 0, pretend = 0, frame = 0
 1165              		@ frame_needed = 0, uses_anonymous_args = 0
  85:Core/Src/ui_lcd.c ****     if (g_ui.screen != UI_SCREEN_PROFILES_READY) {
 1166              		.loc 1 85 1 is_stmt 0 view .LVU260
 1167 0000 10B5     		push	{r4, lr}
 1168              	.LCFI23:
 1169              		.cfi_def_cfa_offset 8
 1170              		.cfi_offset 4, -8
 1171              		.cfi_offset 14, -4
 1172 0002 0446     		mov	r4, r0
  86:Core/Src/ui_lcd.c ****         g_ui.page_started_ms = HAL_GetTick();
 1173              		.loc 1 86 5 is_stmt 1 view .LVU261
  86:Core/Src/ui_lcd.c ****         g_ui.page_started_ms = HAL_GetTick();
 1174              		.loc 1 86 13 is_stmt 0 view .LVU262
 1175 0004 084B     		ldr	r3, .L92
 1176 0006 1B78     		ldrb	r3, [r3]	@ zero_extendqisi2
  86:Core/Src/ui_lcd.c ****         g_ui.page_started_ms = HAL_GetTick();
 1177              		.loc 1 86 8 view .LVU263
 1178 0008 012B     		cmp	r3, #1
 1179 000a 05D1     		bne	.L91
 1180              	.LVL86:
 1181              	.L89:
  90:Core/Src/ui_lcd.c ****     g_ui.profiles = profiles;
 1182              		.loc 1 90 5 is_stmt 1 view .LVU264
  90:Core/Src/ui_lcd.c ****     g_ui.profiles = profiles;
 1183              		.loc 1 90 17 is_stmt 0 view .LVU265
 1184 000c 064B     		ldr	r3, .L92
 1185 000e 0122     		movs	r2, #1
 1186 0010 1A70     		strb	r2, [r3]
  91:Core/Src/ui_lcd.c ****     g_ui.dirty = 1U;
 1187              		.loc 1 91 5 is_stmt 1 view .LVU266
  91:Core/Src/ui_lcd.c ****     g_ui.dirty = 1U;
 1188              		.loc 1 91 19 is_stmt 0 view .LVU267
 1189 0012 5C61     		str	r4, [r3, #20]
  92:Core/Src/ui_lcd.c **** }
 1190              		.loc 1 92 5 is_stmt 1 view .LVU268
  92:Core/Src/ui_lcd.c **** }
 1191              		.loc 1 92 16 is_stmt 0 view .LVU269
 1192 0014 5A73     		strb	r2, [r3, #13]
  93:Core/Src/ui_lcd.c **** 
 1193              		.loc 1 93 1 view .LVU270
 1194 0016 10BD     		pop	{r4, pc}
 1195              	.LVL87:
 1196              	.L91:
  87:Core/Src/ui_lcd.c ****         g_ui.page_index = 0U;
 1197              		.loc 1 87 9 is_stmt 1 view .LVU271
  87:Core/Src/ui_lcd.c ****         g_ui.page_index = 0U;
 1198              		.loc 1 87 32 is_stmt 0 view .LVU272
 1199 0018 FFF7FEFF 		bl	HAL_GetTick
 1200              	.LVL88:
  87:Core/Src/ui_lcd.c ****         g_ui.page_index = 0U;
 1201              		.loc 1 87 30 discriminator 1 view .LVU273
 1202 001c 024B     		ldr	r3, .L92
 1203 001e 9860     		str	r0, [r3, #8]
ARM GAS  /var/folders/t9/y_chwk8j4cv2jjx6x9_h4twc0000gn/T//ccjMeHU7.s 			page 33


  88:Core/Src/ui_lcd.c ****     }
 1204              		.loc 1 88 9 is_stmt 1 view .LVU274
  88:Core/Src/ui_lcd.c ****     }
 1205              		.loc 1 88 25 is_stmt 0 view .LVU275
 1206 0020 0022     		movs	r2, #0
 1207 0022 1A73     		strb	r2, [r3, #12]
 1208 0024 F2E7     		b	.L89
 1209              	.L93:
 1210 0026 00BF     		.align	2
 1211              	.L92:
 1212 0028 00000000 		.word	g_ui
 1213              		.cfi_endproc
 1214              	.LFE70:
 1216              		.section	.text.UI_LCD_ShowWaitConfirm,"ax",%progbits
 1217              		.align	1
 1218              		.global	UI_LCD_ShowWaitConfirm
 1219              		.syntax unified
 1220              		.thumb
 1221              		.thumb_func
 1223              	UI_LCD_ShowWaitConfirm:
 1224              	.LVL89:
 1225              	.LFB71:
  96:Core/Src/ui_lcd.c ****     if (g_ui.screen != UI_SCREEN_WAIT_CONFIRM) {
 1226              		.loc 1 96 1 is_stmt 1 view -0
 1227              		.cfi_startproc
 1228              		@ args = 0, pretend = 0, frame = 0
 1229              		@ frame_needed = 0, uses_anonymous_args = 0
  96:Core/Src/ui_lcd.c ****     if (g_ui.screen != UI_SCREEN_WAIT_CONFIRM) {
 1230              		.loc 1 96 1 is_stmt 0 view .LVU277
 1231 0000 10B5     		push	{r4, lr}
 1232              	.LCFI24:
 1233              		.cfi_def_cfa_offset 8
 1234              		.cfi_offset 4, -8
 1235              		.cfi_offset 14, -4
 1236 0002 0446     		mov	r4, r0
  97:Core/Src/ui_lcd.c ****         g_ui.page_started_ms = HAL_GetTick();
 1237              		.loc 1 97 5 is_stmt 1 view .LVU278
  97:Core/Src/ui_lcd.c ****         g_ui.page_started_ms = HAL_GetTick();
 1238              		.loc 1 97 13 is_stmt 0 view .LVU279
 1239 0004 084B     		ldr	r3, .L98
 1240 0006 1B78     		ldrb	r3, [r3]	@ zero_extendqisi2
  97:Core/Src/ui_lcd.c ****         g_ui.page_started_ms = HAL_GetTick();
 1241              		.loc 1 97 8 view .LVU280
 1242 0008 022B     		cmp	r3, #2
 1243 000a 06D1     		bne	.L97
 1244              	.LVL90:
 1245              	.L95:
 101:Core/Src/ui_lcd.c ****     g_ui.profiles = profiles;
 1246              		.loc 1 101 5 is_stmt 1 view .LVU281
 101:Core/Src/ui_lcd.c ****     g_ui.profiles = profiles;
 1247              		.loc 1 101 17 is_stmt 0 view .LVU282
 1248 000c 064B     		ldr	r3, .L98
 1249 000e 0222     		movs	r2, #2
 1250 0010 1A70     		strb	r2, [r3]
 102:Core/Src/ui_lcd.c ****     g_ui.dirty = 1U;
 1251              		.loc 1 102 5 is_stmt 1 view .LVU283
 102:Core/Src/ui_lcd.c ****     g_ui.dirty = 1U;
ARM GAS  /var/folders/t9/y_chwk8j4cv2jjx6x9_h4twc0000gn/T//ccjMeHU7.s 			page 34


 1252              		.loc 1 102 19 is_stmt 0 view .LVU284
 1253 0012 5C61     		str	r4, [r3, #20]
 103:Core/Src/ui_lcd.c **** }
 1254              		.loc 1 103 5 is_stmt 1 view .LVU285
 103:Core/Src/ui_lcd.c **** }
 1255              		.loc 1 103 16 is_stmt 0 view .LVU286
 1256 0014 0122     		movs	r2, #1
 1257 0016 5A73     		strb	r2, [r3, #13]
 104:Core/Src/ui_lcd.c **** 
 1258              		.loc 1 104 1 view .LVU287
 1259 0018 10BD     		pop	{r4, pc}
 1260              	.LVL91:
 1261              	.L97:
  98:Core/Src/ui_lcd.c ****         g_ui.page_index = 0U;
 1262              		.loc 1 98 9 is_stmt 1 view .LVU288
  98:Core/Src/ui_lcd.c ****         g_ui.page_index = 0U;
 1263              		.loc 1 98 32 is_stmt 0 view .LVU289
 1264 001a FFF7FEFF 		bl	HAL_GetTick
 1265              	.LVL92:
  98:Core/Src/ui_lcd.c ****         g_ui.page_index = 0U;
 1266              		.loc 1 98 30 discriminator 1 view .LVU290
 1267 001e 024B     		ldr	r3, .L98
 1268 0020 9860     		str	r0, [r3, #8]
  99:Core/Src/ui_lcd.c ****     }
 1269              		.loc 1 99 9 is_stmt 1 view .LVU291
  99:Core/Src/ui_lcd.c ****     }
 1270              		.loc 1 99 25 is_stmt 0 view .LVU292
 1271 0022 0022     		movs	r2, #0
 1272 0024 1A73     		strb	r2, [r3, #12]
 1273 0026 F1E7     		b	.L95
 1274              	.L99:
 1275              		.align	2
 1276              	.L98:
 1277 0028 00000000 		.word	g_ui
 1278              		.cfi_endproc
 1279              	.LFE71:
 1281              		.section	.text.UI_LCD_ShowStartupTest,"ax",%progbits
 1282              		.align	1
 1283              		.global	UI_LCD_ShowStartupTest
 1284              		.syntax unified
 1285              		.thumb
 1286              		.thumb_func
 1288              	UI_LCD_ShowStartupTest:
 1289              	.LVL93:
 1290              	.LFB72:
 107:Core/Src/ui_lcd.c ****     g_ui.screen = UI_SCREEN_STARTUP_TEST;
 1291              		.loc 1 107 1 is_stmt 1 view -0
 1292              		.cfi_startproc
 1293              		@ args = 0, pretend = 0, frame = 0
 1294              		@ frame_needed = 0, uses_anonymous_args = 0
 1295              		@ link register save eliminated.
 108:Core/Src/ui_lcd.c ****     g_ui.passed_mask = passed_mask;
 1296              		.loc 1 108 5 view .LVU294
 108:Core/Src/ui_lcd.c ****     g_ui.passed_mask = passed_mask;
 1297              		.loc 1 108 17 is_stmt 0 view .LVU295
 1298 0000 054B     		ldr	r3, .L101
 1299 0002 4FF0030C 		mov	ip, #3
ARM GAS  /var/folders/t9/y_chwk8j4cv2jjx6x9_h4twc0000gn/T//ccjMeHU7.s 			page 35


 1300 0006 83F800C0 		strb	ip, [r3]
 109:Core/Src/ui_lcd.c ****     g_ui.fail_mask = fail_mask;
 1301              		.loc 1 109 5 is_stmt 1 view .LVU296
 109:Core/Src/ui_lcd.c ****     g_ui.fail_mask = fail_mask;
 1302              		.loc 1 109 22 is_stmt 0 view .LVU297
 1303 000a 9873     		strb	r0, [r3, #14]
 110:Core/Src/ui_lcd.c ****     g_ui.complete = complete;
 1304              		.loc 1 110 5 is_stmt 1 view .LVU298
 110:Core/Src/ui_lcd.c ****     g_ui.complete = complete;
 1305              		.loc 1 110 20 is_stmt 0 view .LVU299
 1306 000c D973     		strb	r1, [r3, #15]
 111:Core/Src/ui_lcd.c ****     g_ui.dirty = 1U;
 1307              		.loc 1 111 5 is_stmt 1 view .LVU300
 111:Core/Src/ui_lcd.c ****     g_ui.dirty = 1U;
 1308              		.loc 1 111 19 is_stmt 0 view .LVU301
 1309 000e 1A74     		strb	r2, [r3, #16]
 112:Core/Src/ui_lcd.c **** }
 1310              		.loc 1 112 5 is_stmt 1 view .LVU302
 112:Core/Src/ui_lcd.c **** }
 1311              		.loc 1 112 16 is_stmt 0 view .LVU303
 1312 0010 0122     		movs	r2, #1
 1313              	.LVL94:
 112:Core/Src/ui_lcd.c **** }
 1314              		.loc 1 112 16 view .LVU304
 1315 0012 5A73     		strb	r2, [r3, #13]
 113:Core/Src/ui_lcd.c **** 
 1316              		.loc 1 113 1 view .LVU305
 1317 0014 7047     		bx	lr
 1318              	.L102:
 1319 0016 00BF     		.align	2
 1320              	.L101:
 1321 0018 00000000 		.word	g_ui
 1322              		.cfi_endproc
 1323              	.LFE72:
 1325              		.section	.text.UI_LCD_ShowRuntime,"ax",%progbits
 1326              		.align	1
 1327              		.global	UI_LCD_ShowRuntime
 1328              		.syntax unified
 1329              		.thumb
 1330              		.thumb_func
 1332              	UI_LCD_ShowRuntime:
 1333              	.LVL95:
 1334              	.LFB73:
 119:Core/Src/ui_lcd.c ****     if (g_ui.screen != UI_SCREEN_RUNTIME) {
 1335              		.loc 1 119 1 is_stmt 1 view -0
 1336              		.cfi_startproc
 1337              		@ args = 0, pretend = 0, frame = 0
 1338              		@ frame_needed = 0, uses_anonymous_args = 0
 119:Core/Src/ui_lcd.c ****     if (g_ui.screen != UI_SCREEN_RUNTIME) {
 1339              		.loc 1 119 1 is_stmt 0 view .LVU307
 1340 0000 F8B5     		push	{r3, r4, r5, r6, r7, lr}
 1341              	.LCFI25:
 1342              		.cfi_def_cfa_offset 24
 1343              		.cfi_offset 3, -24
 1344              		.cfi_offset 4, -20
 1345              		.cfi_offset 5, -16
 1346              		.cfi_offset 6, -12
ARM GAS  /var/folders/t9/y_chwk8j4cv2jjx6x9_h4twc0000gn/T//ccjMeHU7.s 			page 36


 1347              		.cfi_offset 7, -8
 1348              		.cfi_offset 14, -4
 1349 0002 0446     		mov	r4, r0
 1350 0004 0D46     		mov	r5, r1
 1351 0006 1646     		mov	r6, r2
 1352 0008 1F46     		mov	r7, r3
 120:Core/Src/ui_lcd.c ****         g_ui.page_started_ms = HAL_GetTick();
 1353              		.loc 1 120 5 is_stmt 1 view .LVU308
 120:Core/Src/ui_lcd.c ****         g_ui.page_started_ms = HAL_GetTick();
 1354              		.loc 1 120 13 is_stmt 0 view .LVU309
 1355 000a 0A4B     		ldr	r3, .L107
 1356              	.LVL96:
 120:Core/Src/ui_lcd.c ****         g_ui.page_started_ms = HAL_GetTick();
 1357              		.loc 1 120 13 view .LVU310
 1358 000c 1B78     		ldrb	r3, [r3]	@ zero_extendqisi2
 120:Core/Src/ui_lcd.c ****         g_ui.page_started_ms = HAL_GetTick();
 1359              		.loc 1 120 8 view .LVU311
 1360 000e 042B     		cmp	r3, #4
 1361 0010 09D1     		bne	.L106
 1362              	.LVL97:
 1363              	.L104:
 124:Core/Src/ui_lcd.c ****     g_ui.profiles = profiles;
 1364              		.loc 1 124 5 is_stmt 1 view .LVU312
 124:Core/Src/ui_lcd.c ****     g_ui.profiles = profiles;
 1365              		.loc 1 124 17 is_stmt 0 view .LVU313
 1366 0012 084B     		ldr	r3, .L107
 1367 0014 0422     		movs	r2, #4
 1368 0016 1A70     		strb	r2, [r3]
 125:Core/Src/ui_lcd.c ****     g_ui.temps = temps;
 1369              		.loc 1 125 5 is_stmt 1 view .LVU314
 125:Core/Src/ui_lcd.c ****     g_ui.temps = temps;
 1370              		.loc 1 125 19 is_stmt 0 view .LVU315
 1371 0018 5C61     		str	r4, [r3, #20]
 126:Core/Src/ui_lcd.c ****     g_ui.targets = targets;
 1372              		.loc 1 126 5 is_stmt 1 view .LVU316
 126:Core/Src/ui_lcd.c ****     g_ui.targets = targets;
 1373              		.loc 1 126 16 is_stmt 0 view .LVU317
 1374 001a 9D61     		str	r5, [r3, #24]
 127:Core/Src/ui_lcd.c ****     g_ui.fans = fans;
 1375              		.loc 1 127 5 is_stmt 1 view .LVU318
 127:Core/Src/ui_lcd.c ****     g_ui.fans = fans;
 1376              		.loc 1 127 18 is_stmt 0 view .LVU319
 1377 001c DE61     		str	r6, [r3, #28]
 128:Core/Src/ui_lcd.c ****     g_ui.dirty = 1U;
 1378              		.loc 1 128 5 is_stmt 1 view .LVU320
 128:Core/Src/ui_lcd.c ****     g_ui.dirty = 1U;
 1379              		.loc 1 128 15 is_stmt 0 view .LVU321
 1380 001e 1F62     		str	r7, [r3, #32]
 129:Core/Src/ui_lcd.c **** }
 1381              		.loc 1 129 5 is_stmt 1 view .LVU322
 129:Core/Src/ui_lcd.c **** }
 1382              		.loc 1 129 16 is_stmt 0 view .LVU323
 1383 0020 0122     		movs	r2, #1
 1384 0022 5A73     		strb	r2, [r3, #13]
 130:Core/Src/ui_lcd.c **** 
 1385              		.loc 1 130 1 view .LVU324
 1386 0024 F8BD     		pop	{r3, r4, r5, r6, r7, pc}
ARM GAS  /var/folders/t9/y_chwk8j4cv2jjx6x9_h4twc0000gn/T//ccjMeHU7.s 			page 37


 1387              	.LVL98:
 1388              	.L106:
 121:Core/Src/ui_lcd.c ****         g_ui.page_index = 0U;
 1389              		.loc 1 121 9 is_stmt 1 view .LVU325
 121:Core/Src/ui_lcd.c ****         g_ui.page_index = 0U;
 1390              		.loc 1 121 32 is_stmt 0 view .LVU326
 1391 0026 FFF7FEFF 		bl	HAL_GetTick
 1392              	.LVL99:
 121:Core/Src/ui_lcd.c ****         g_ui.page_index = 0U;
 1393              		.loc 1 121 30 discriminator 1 view .LVU327
 1394 002a 024B     		ldr	r3, .L107
 1395 002c 9860     		str	r0, [r3, #8]
 122:Core/Src/ui_lcd.c ****     }
 1396              		.loc 1 122 9 is_stmt 1 view .LVU328
 122:Core/Src/ui_lcd.c ****     }
 1397              		.loc 1 122 25 is_stmt 0 view .LVU329
 1398 002e 0022     		movs	r2, #0
 1399 0030 1A73     		strb	r2, [r3, #12]
 1400 0032 EEE7     		b	.L104
 1401              	.L108:
 1402              		.align	2
 1403              	.L107:
 1404 0034 00000000 		.word	g_ui
 1405              		.cfi_endproc
 1406              	.LFE73:
 1408              		.section	.text.UI_LCD_ShowSafeState,"ax",%progbits
 1409              		.align	1
 1410              		.global	UI_LCD_ShowSafeState
 1411              		.syntax unified
 1412              		.thumb
 1413              		.thumb_func
 1415              	UI_LCD_ShowSafeState:
 1416              	.LVL100:
 1417              	.LFB74:
 133:Core/Src/ui_lcd.c ****     g_ui.screen = UI_SCREEN_SAFE_STATE;
 1418              		.loc 1 133 1 is_stmt 1 view -0
 1419              		.cfi_startproc
 1420              		@ args = 0, pretend = 0, frame = 0
 1421              		@ frame_needed = 0, uses_anonymous_args = 0
 1422              		@ link register save eliminated.
 134:Core/Src/ui_lcd.c ****     g_ui.fail_mask = fail_mask;
 1423              		.loc 1 134 5 view .LVU331
 134:Core/Src/ui_lcd.c ****     g_ui.fail_mask = fail_mask;
 1424              		.loc 1 134 17 is_stmt 0 view .LVU332
 1425 0000 034B     		ldr	r3, .L110
 1426 0002 0522     		movs	r2, #5
 1427 0004 1A70     		strb	r2, [r3]
 135:Core/Src/ui_lcd.c ****     g_ui.dirty = 1U;
 1428              		.loc 1 135 5 is_stmt 1 view .LVU333
 135:Core/Src/ui_lcd.c ****     g_ui.dirty = 1U;
 1429              		.loc 1 135 20 is_stmt 0 view .LVU334
 1430 0006 D873     		strb	r0, [r3, #15]
 136:Core/Src/ui_lcd.c **** }
 1431              		.loc 1 136 5 is_stmt 1 view .LVU335
 136:Core/Src/ui_lcd.c **** }
 1432              		.loc 1 136 16 is_stmt 0 view .LVU336
 1433 0008 0122     		movs	r2, #1
ARM GAS  /var/folders/t9/y_chwk8j4cv2jjx6x9_h4twc0000gn/T//ccjMeHU7.s 			page 38


 1434 000a 5A73     		strb	r2, [r3, #13]
 137:Core/Src/ui_lcd.c **** 
 1435              		.loc 1 137 1 view .LVU337
 1436 000c 7047     		bx	lr
 1437              	.L111:
 1438 000e 00BF     		.align	2
 1439              	.L110:
 1440 0010 00000000 		.word	g_ui
 1441              		.cfi_endproc
 1442              	.LFE74:
 1444              		.section	.bss.g_ui,"aw",%nobits
 1445              		.align	2
 1448              	g_ui:
 1449 0000 00000000 		.space	120
 1449      00000000 
 1449      00000000 
 1449      00000000 
 1449      00000000 
 1450              		.text
 1451              	.Letext0:
 1452              		.file 2 "/Applications/ArmGNUToolchain/15.2.rel1/arm-none-eabi/arm-none-eabi/include/machine/_defa
 1453              		.file 3 "/Applications/ArmGNUToolchain/15.2.rel1/arm-none-eabi/arm-none-eabi/include/sys/_stdint.h
 1454              		.file 4 "Core/Inc/Profil.h"
 1455              		.file 5 "/Applications/ArmGNUToolchain/15.2.rel1/arm-none-eabi/lib/gcc/arm-none-eabi/15.2.1/includ
 1456              		.file 6 "Core/Inc/temperature_stub.h"
 1457              		.file 7 "Core/Inc/AFLCalcul.h"
 1458              		.file 8 "Core/Inc/fan_control.h"
 1459              		.file 9 "/Applications/ArmGNUToolchain/15.2.rel1/arm-none-eabi/arm-none-eabi/include/string.h"
 1460              		.file 10 "/Applications/ArmGNUToolchain/15.2.rel1/arm-none-eabi/arm-none-eabi/include/stdio.h"
 1461              		.file 11 "Core/Inc/LCD.h"
 1462              		.file 12 "Drivers/STM32F1xx_HAL_Driver/Inc/stm32f1xx_hal.h"
 1463              		.file 13 "<built-in>"
ARM GAS  /var/folders/t9/y_chwk8j4cv2jjx6x9_h4twc0000gn/T//ccjMeHU7.s 			page 39

